Archive member included to satisfy reference by file (symbol)

/home/pi/github/inferno-pico/Pico/arm/lib/libinterp.a(alt.o)
                              dis.o (altdone)
/home/pi/github/inferno-pico/Pico/arm/lib/libinterp.a(comp-arm.o)
                              devprog.o (comvec)
/home/pi/github/inferno-pico/Pico/arm/lib/libinterp.a(conv.o)
                              dis.o (Dconv)
/home/pi/github/inferno-pico/Pico/arm/lib/libinterp.a(dec.o)
                              devprog.o (dec)
/home/pi/github/inferno-pico/Pico/arm/lib/libinterp.a(gc.o)
                              dis.o (nprop)
/home/pi/github/inferno-pico/Pico/arm/lib/libinterp.a(heap.o)
                              devsrv.o (dtype)
/home/pi/github/inferno-pico/Pico/arm/lib/libinterp.a(link.o)
                              dis.o (mklinkmod)
/home/pi/github/inferno-pico/Pico/arm/lib/libinterp.a(load.o)
                              dis.o (load)
/home/pi/github/inferno-pico/Pico/arm/lib/libinterp.a(math.o)
                              pico.o (mathmodinit)
/home/pi/github/inferno-pico/Pico/arm/lib/libinterp.a(raise.o)
                              /home/pi/github/inferno-pico/Pico/arm/lib/libinterp.a(alt.o) (exNilref)
/home/pi/github/inferno-pico/Pico/arm/lib/libinterp.a(readmod.o)
                              /home/pi/github/inferno-pico/Pico/arm/lib/libinterp.a(load.o) (readmod)
/home/pi/github/inferno-pico/Pico/arm/lib/libinterp.a(runt.o)
                              inferno.o (xprint)
/home/pi/github/inferno-pico/Pico/arm/lib/libinterp.a(sign.o)
                              /home/pi/github/inferno-pico/Pico/arm/lib/libinterp.a(load.o) (verifysigner)
/home/pi/github/inferno-pico/Pico/arm/lib/libinterp.a(stack.o)
                              dis.o (newstack)
/home/pi/github/inferno-pico/Pico/arm/lib/libinterp.a(xec.o)
                              devprog.o (R)
/home/pi/github/inferno-pico/Pico/arm/lib/libinterp.a(das-arm.o)
                              /home/pi/github/inferno-pico/Pico/arm/lib/libinterp.a(comp-arm.o) (das)
/home/pi/github/inferno-pico/Pico/arm/lib/libinterp.a(string.o)
                              /home/pi/github/inferno-pico/Pico/arm/lib/libinterp.a(xec.o) (indc)
/home/pi/github/inferno-pico/Pico/arm/lib/libinterp.a(dlm-Pico.o)
                              /home/pi/github/inferno-pico/Pico/arm/lib/libinterp.a(readmod.o) (newdyncode)
/home/pi/github/inferno-pico/Pico/arm/lib/libmath.a(blas.o)
                              /home/pi/github/inferno-pico/Pico/arm/lib/libinterp.a(math.o) (dot)
/home/pi/github/inferno-pico/Pico/arm/lib/libmath.a(dtoa.o)
                              /home/pi/github/inferno-pico/Pico/arm/lib/libinterp.a(string.o) (strtod)
/home/pi/github/inferno-pico/Pico/arm/lib/libmath.a(fdim.o)
                              /home/pi/github/inferno-pico/Pico/arm/lib/libinterp.a(math.o) (fdim)
/home/pi/github/inferno-pico/Pico/arm/lib/libmath.a(FPcontrol-Pico.o)
                              /home/pi/github/inferno-pico/Pico/arm/lib/libinterp.a(math.o) (getFPstatus)
/home/pi/github/inferno-pico/Pico/arm/lib/libmath.a(gemm.o)
                              /home/pi/github/inferno-pico/Pico/arm/lib/libinterp.a(math.o) (gemm)
/home/pi/github/inferno-pico/Pico/arm/lib/libmath.a(gfltconv.o)
                              /home/pi/github/inferno-pico/Pico/arm/lib/libinterp.a(math.o) (gfltconv)
/home/pi/github/inferno-pico/Pico/arm/lib/libmath.a(pow10.o)
                              /home/pi/github/inferno-pico/Pico/arm/lib/libinterp.a(math.o) (ipow10)
/home/pi/github/inferno-pico/Pico/arm/lib/libmath.a(e_acos.o)
                              /home/pi/github/inferno-pico/Pico/arm/lib/libinterp.a(math.o) (__ieee754_acos)
/home/pi/github/inferno-pico/Pico/arm/lib/libmath.a(e_acosh.o)
                              /home/pi/github/inferno-pico/Pico/arm/lib/libinterp.a(math.o) (__ieee754_acosh)
/home/pi/github/inferno-pico/Pico/arm/lib/libmath.a(e_asin.o)
                              /home/pi/github/inferno-pico/Pico/arm/lib/libinterp.a(math.o) (__ieee754_asin)
/home/pi/github/inferno-pico/Pico/arm/lib/libmath.a(e_atan2.o)
                              /home/pi/github/inferno-pico/Pico/arm/lib/libinterp.a(math.o) (__ieee754_atan2)
/home/pi/github/inferno-pico/Pico/arm/lib/libmath.a(e_atanh.o)
                              /home/pi/github/inferno-pico/Pico/arm/lib/libinterp.a(math.o) (__ieee754_atanh)
/home/pi/github/inferno-pico/Pico/arm/lib/libmath.a(e_cosh.o)
                              /home/pi/github/inferno-pico/Pico/arm/lib/libinterp.a(math.o) (__ieee754_cosh)
/home/pi/github/inferno-pico/Pico/arm/lib/libmath.a(e_exp.o)
                              /home/pi/github/inferno-pico/Pico/arm/lib/libinterp.a(math.o) (__ieee754_exp)
/home/pi/github/inferno-pico/Pico/arm/lib/libmath.a(e_fmod.o)
                              /home/pi/github/inferno-pico/Pico/arm/lib/libinterp.a(math.o) (__ieee754_fmod)
/home/pi/github/inferno-pico/Pico/arm/lib/libmath.a(e_hypot.o)
                              /home/pi/github/inferno-pico/Pico/arm/lib/libinterp.a(math.o) (__ieee754_hypot)
/home/pi/github/inferno-pico/Pico/arm/lib/libmath.a(e_j0.o)
                              /home/pi/github/inferno-pico/Pico/arm/lib/libinterp.a(math.o) (__ieee754_j0)
/home/pi/github/inferno-pico/Pico/arm/lib/libmath.a(e_j1.o)
                              /home/pi/github/inferno-pico/Pico/arm/lib/libinterp.a(math.o) (__ieee754_j1)
/home/pi/github/inferno-pico/Pico/arm/lib/libmath.a(e_jn.o)
                              /home/pi/github/inferno-pico/Pico/arm/lib/libinterp.a(math.o) (__ieee754_jn)
/home/pi/github/inferno-pico/Pico/arm/lib/libmath.a(e_lgamma_r.o)
                              /home/pi/github/inferno-pico/Pico/arm/lib/libinterp.a(math.o) (__ieee754_lgamma_r)
/home/pi/github/inferno-pico/Pico/arm/lib/libmath.a(e_log.o)
                              /home/pi/github/inferno-pico/Pico/arm/lib/libinterp.a(math.o) (__ieee754_log)
/home/pi/github/inferno-pico/Pico/arm/lib/libmath.a(e_log10.o)
                              /home/pi/github/inferno-pico/Pico/arm/lib/libinterp.a(math.o) (__ieee754_log10)
/home/pi/github/inferno-pico/Pico/arm/lib/libmath.a(e_pow.o)
                              /home/pi/github/inferno-pico/Pico/arm/lib/libinterp.a(math.o) (__ieee754_pow)
/home/pi/github/inferno-pico/Pico/arm/lib/libmath.a(e_remainder.o)
                              /home/pi/github/inferno-pico/Pico/arm/lib/libinterp.a(math.o) (__ieee754_remainder)
/home/pi/github/inferno-pico/Pico/arm/lib/libmath.a(e_sinh.o)
                              /home/pi/github/inferno-pico/Pico/arm/lib/libinterp.a(math.o) (__ieee754_sinh)
/home/pi/github/inferno-pico/Pico/arm/lib/libmath.a(e_sqrt.o)
                              /home/pi/github/inferno-pico/Pico/arm/lib/libinterp.a(math.o) (__ieee754_sqrt)
/home/pi/github/inferno-pico/Pico/arm/lib/libmath.a(k_cos.o)
                              /home/pi/github/inferno-pico/Pico/arm/lib/libmath.a(e_lgamma_r.o) (__kernel_cos)
/home/pi/github/inferno-pico/Pico/arm/lib/libmath.a(k_sin.o)
                              /home/pi/github/inferno-pico/Pico/arm/lib/libmath.a(e_lgamma_r.o) (__kernel_sin)
/home/pi/github/inferno-pico/Pico/arm/lib/libmath.a(s_erf.o)
                              /home/pi/github/inferno-pico/Pico/arm/lib/libinterp.a(math.o) (erf)
/home/pi/github/inferno-pico/Pico/arm/lib/libmath.a(s_fabs.o)
                              /home/pi/github/inferno-pico/Pico/arm/lib/libinterp.a(math.o) (fabs)
/home/pi/github/inferno-pico/Pico/arm/lib/libmath.a(s_finite.o)
                              /home/pi/github/inferno-pico/Pico/arm/lib/libinterp.a(math.o) (finite)
/home/pi/github/inferno-pico/Pico/arm/lib/libmath.a(s_ilogb.o)
                              /home/pi/github/inferno-pico/Pico/arm/lib/libinterp.a(math.o) (ilogb)
/home/pi/github/inferno-pico/Pico/arm/lib/libmath.a(s_nextafter.o)
                              /home/pi/github/inferno-pico/Pico/arm/lib/libinterp.a(math.o) (nextafter)
/home/pi/github/inferno-pico/Pico/arm/lib/libmath.a(s_rint.o)
                              /home/pi/github/inferno-pico/Pico/arm/lib/libinterp.a(math.o) (rint)
/home/pi/github/inferno-pico/Pico/arm/lib/libmath.a(s_scalbn.o)
                              /home/pi/github/inferno-pico/Pico/arm/lib/libinterp.a(math.o) (scalbn)
/home/pi/github/inferno-pico/Pico/arm/lib/libmath.a(g_fmt.o)
                              /home/pi/github/inferno-pico/Pico/arm/lib/libmath.a(gfltconv.o) (g_fmt)
/home/pi/github/inferno-pico/Pico/arm/lib/libkern.a(abort.o)
                              /home/pi/github/inferno-pico/Pico/arm/lib/libinterp.a(load.o) (abort)
/home/pi/github/inferno-pico/Pico/arm/lib/libkern.a(abs.o)
                              devprog.o (abs)
/home/pi/github/inferno-pico/Pico/arm/lib/libkern.a(atol.o)
                              devcons.o (atoi)
/home/pi/github/inferno-pico/Pico/arm/lib/libkern.a(cleanname.o)
                              chan.o (cleanname)
/home/pi/github/inferno-pico/Pico/arm/lib/libkern.a(convD2M.o)
                              sysfile.o (sizeD2M)
/home/pi/github/inferno-pico/Pico/arm/lib/libkern.a(convM2D.o)
                              sysfile.o (statcheck)
/home/pi/github/inferno-pico/Pico/arm/lib/libkern.a(convM2S.o)
                              devmnt.o (convM2S)
/home/pi/github/inferno-pico/Pico/arm/lib/libkern.a(convS2M.o)
                              devmnt.o (convS2M)
/home/pi/github/inferno-pico/Pico/arm/lib/libkern.a(dofmt.o)
                              /home/pi/github/inferno-pico/Pico/arm/lib/libmath.a(gfltconv.o) (_fmtcpy)
/home/pi/github/inferno-pico/Pico/arm/lib/libkern.a(fcallfmt.o)
                              devmnt.o (fcallfmt)
/home/pi/github/inferno-pico/Pico/arm/lib/libkern.a(fmt.o)
                              devmnt.o (fmtinstall)
/home/pi/github/inferno-pico/Pico/arm/lib/libkern.a(fmtquote.o)
                              main.o (quotefmtinstall)
/home/pi/github/inferno-pico/Pico/arm/lib/libkern.a(memchr.o)
                              devcons.o (memchr)
/home/pi/github/inferno-pico/Pico/arm/lib/libkern.a(memcmp.o)
                              /home/pi/github/inferno-pico/Pico/arm/lib/libinterp.a(string.o) (memcmp)
/home/pi/github/inferno-pico/Pico/arm/lib/libkern.a(rune.o)
                              devcons.o (chartorune)
/home/pi/github/inferno-pico/Pico/arm/lib/libkern.a(seprint.o)
                              devprog.o (seprint)
/home/pi/github/inferno-pico/Pico/arm/lib/libkern.a(strcmp.o)
                              devroot.o (strcmp)
/home/pi/github/inferno-pico/Pico/arm/lib/libkern.a(strcpy.o)
                              main.o (strcpy)
/home/pi/github/inferno-pico/Pico/arm/lib/libkern.a(strdup.o)
                              main.o (strdup)
/home/pi/github/inferno-pico/Pico/arm/lib/libkern.a(strecpy.o)
                              devmnt.o (strecpy)
/home/pi/github/inferno-pico/Pico/arm/lib/libkern.a(strlen.o)
                              devcons.o (strlen)
/home/pi/github/inferno-pico/Pico/arm/lib/libkern.a(strncmp.o)
                              devcons.o (strncmp)
/home/pi/github/inferno-pico/Pico/arm/lib/libkern.a(strncpy.o)
                              devcons.o (strncpy)
/home/pi/github/inferno-pico/Pico/arm/lib/libkern.a(strrchr.o)
                              devprog.o (strrchr)
/home/pi/github/inferno-pico/Pico/arm/lib/libkern.a(strstr.o)
                              dial.o (strstr)
/home/pi/github/inferno-pico/Pico/arm/lib/libkern.a(strtol.o)
                              /home/pi/github/inferno-pico/Pico/arm/lib/libinterp.a(string.o) (strtol)
/home/pi/github/inferno-pico/Pico/arm/lib/libkern.a(strtoll.o)
                              devcons.o (strtoll)
/home/pi/github/inferno-pico/Pico/arm/lib/libkern.a(strtoul.o)
                              devprog.o (strtoul)
/home/pi/github/inferno-pico/Pico/arm/lib/libkern.a(tokenize.o)
                              parse.o (tokenize)
/home/pi/github/inferno-pico/Pico/arm/lib/libkern.a(utflen.o)
                              /home/pi/github/inferno-pico/Pico/arm/lib/libkern.a(dofmt.o) (utflen)
/home/pi/github/inferno-pico/Pico/arm/lib/libkern.a(utfnlen.o)
                              /home/pi/github/inferno-pico/Pico/arm/lib/libkern.a(dofmt.o) (utfnlen)
/home/pi/github/inferno-pico/Pico/arm/lib/libkern.a(utfrune.o)
                              chan.o (utfrune)
/home/pi/github/inferno-pico/Pico/arm/lib/libkern.a(vseprint.o)
                              devcons.o (vseprint)
/home/pi/github/inferno-pico/Pico/arm/lib/libkern.a(vsnprint.o)
                              devcons.o (vsnprint)
/home/pi/github/inferno-pico/Pico/arm/lib/libkern.a(frexp-arm.o)
                              /home/pi/github/inferno-pico/Pico/arm/lib/libinterp.a(math.o) (modf)
/home/pi/github/inferno-pico/Pico/arm/lib/libkern.a(getfcr-arm.o)
                              /home/pi/github/inferno-pico/Pico/arm/lib/libmath.a(FPcontrol-Pico.o) (setfcr)
/home/pi/github/inferno-pico/Pico/arm/lib/libkern.a(nan-arm.o)
                              /home/pi/github/inferno-pico/Pico/arm/lib/libkern.a(frexp-arm.o) (Inf)
/home/pi/github/inferno-pico/Pico/arm/lib/libkern.a(memccpy.o)
                              /home/pi/github/inferno-pico/Pico/arm/lib/libkern.a(strcpy.o) (memccpy)
/home/pi/github/inferno-pico/Pico/arm/lib/libpico.a(clocks.o)
                              archpico.o (clocks_init)
/home/pi/github/inferno-pico/Pico/arm/lib/libpico.a(crt0.o)
                              (_entry_point)
/home/pi/github/inferno-pico/Pico/arm/lib/libpico.a(double_none.o)
                              /home/pi/github/inferno-pico/Pico/arm/lib/libinterp.a(xec.o) (__wrap___aeabi_dadd)
/home/pi/github/inferno-pico/Pico/arm/lib/libpico.a(float_none.o)
                              /home/pi/github/inferno-pico/Pico/arm/lib/libinterp.a(math.o) (__wrap___aeabi_f2d)
/home/pi/github/inferno-pico/Pico/arm/lib/libpico.a(gpio.o)
                              /home/pi/github/inferno-pico/Pico/arm/lib/libpico.a(clocks.o) (gpio_set_function)
/home/pi/github/inferno-pico/Pico/arm/lib/libpico.a(irq.o)
                              archpico.o (irq_is_enabled)
/home/pi/github/inferno-pico/Pico/arm/lib/libpico.a(irq_handler_chain.o)
                              /home/pi/github/inferno-pico/Pico/arm/lib/libpico.a(irq.o) (irq_handler_chain_slots)
/home/pi/github/inferno-pico/Pico/arm/lib/libpico.a(mem_ops_aeabi.o)
                              /usr/lib/gcc/arm-none-eabi/7.3.1/../../../arm-none-eabi/lib/thumb/v6-m/crt0.o (__wrap_memset)
/home/pi/github/inferno-pico/Pico/arm/lib/libpico.a(pico_divider.o)
                              devprog.o (__wrap___aeabi_idiv)
/home/pi/github/inferno-pico/Pico/arm/lib/libpico.a(pico_malloc.o)
                              devcons.o (__wrap_malloc)
/home/pi/github/inferno-pico/Pico/arm/lib/libpico.a(platform.o)
                              /home/pi/github/inferno-pico/Pico/arm/lib/libpico.a(clocks.o) (running_on_fpga)
/home/pi/github/inferno-pico/Pico/arm/lib/libpico.a(pll.o)
                              /home/pi/github/inferno-pico/Pico/arm/lib/libpico.a(clocks.o) (pll_init)
/home/pi/github/inferno-pico/Pico/arm/lib/libpico.a(runtime.o)
                              /usr/lib/gcc/arm-none-eabi/7.3.1/../../../arm-none-eabi/lib/thumb/v6-m/crt0.o (exit)
/home/pi/github/inferno-pico/Pico/arm/lib/libpico.a(stdio.o)
                              /home/pi/github/inferno-pico/Pico/arm/lib/libpico.a(runtime.o) (__wrap_puts)
/home/pi/github/inferno-pico/Pico/arm/lib/libpico.a(stdio_uart.o)
                              /home/pi/github/inferno-pico/Pico/arm/lib/libpico.a(stdio.o) (stdio_uart_init)
/home/pi/github/inferno-pico/Pico/arm/lib/libpico.a(sync.o)
                              /home/pi/github/inferno-pico/Pico/arm/lib/libpico.a(runtime.o) (spin_locks_reset)
/home/pi/github/inferno-pico/Pico/arm/lib/libpico.a(time.o)
                              /home/pi/github/inferno-pico/Pico/arm/lib/libpico.a(runtime.o) (alarm_pool_init_default)
/home/pi/github/inferno-pico/Pico/arm/lib/libpico.a(timer.o)
                              /home/pi/github/inferno-pico/Pico/arm/lib/libpico.a(time.o) (hardware_alarm_claim)
/home/pi/github/inferno-pico/Pico/arm/lib/libpico.a(uart.o)
                              /home/pi/github/inferno-pico/Pico/arm/lib/libpico.a(stdio_uart.o) (uart_char_to_line_feed)
/home/pi/github/inferno-pico/Pico/arm/lib/libpico.a(unique_id.o)
                              archpico.o (pico_get_unique_board_id)
/home/pi/github/inferno-pico/Pico/arm/lib/libpico.a(watchdog.o)
                              /home/pi/github/inferno-pico/Pico/arm/lib/libpico.a(clocks.o) (watchdog_start_tick)
/home/pi/github/inferno-pico/Pico/arm/lib/libpico.a(xosc.o)
                              /home/pi/github/inferno-pico/Pico/arm/lib/libpico.a(clocks.o) (xosc_init)
/home/pi/github/inferno-pico/Pico/arm/lib/libpico.a(pico_int64_ops_aeabi.o)
                              devcons.o (__wrap___aeabi_lmul)
/home/pi/github/inferno-pico/Pico/arm/lib/libpico.a(bootrom.o)
                              /home/pi/github/inferno-pico/Pico/arm/lib/libpico.a(crt0.o) (rom_func_lookup)
/home/pi/github/inferno-pico/Pico/arm/lib/libpico.a(claim.o)
                              /home/pi/github/inferno-pico/Pico/arm/lib/libpico.a(sync.o) (hw_is_claimed)
/home/pi/github/inferno-pico/Pico/arm/lib/libpico.a(flash.o)
                              /home/pi/github/inferno-pico/Pico/arm/lib/libpico.a(unique_id.o) (flash_get_unique_id)
/home/pi/github/inferno-pico/Pico/arm/lib/libpico.a(lock_core.o)
                              /home/pi/github/inferno-pico/Pico/arm/lib/libpico.a(time.o) (lock_init)
/home/pi/github/inferno-pico/Pico/arm/lib/libpico.a(mutex.o)
                              /home/pi/github/inferno-pico/Pico/arm/lib/libpico.a(runtime.o) (mutex_init)
/home/pi/github/inferno-pico/Pico/arm/lib/libpico.a(pheap.o)
                              /home/pi/github/inferno-pico/Pico/arm/lib/libpico.a(time.o) (ph_post_alloc_init)
/home/pi/github/inferno-pico/Pico/arm/lib/libpico.a(printf.o)
                              /home/pi/github/inferno-pico/Pico/arm/lib/libpico.a(stdio.o) (vfctprintf)
/usr/lib/gcc/arm-none-eabi/7.3.1/thumb/v6-m/libgcc.a(_dvmd_tls.o)
                              /home/pi/github/inferno-pico/Pico/arm/lib/libpico.a(pico_divider.o) (__aeabi_idiv0)
/usr/lib/gcc/arm-none-eabi/7.3.1/../../../arm-none-eabi/lib/thumb/v6-m/libg.a(lib_a-atexit.o)
                              /usr/lib/gcc/arm-none-eabi/7.3.1/../../../arm-none-eabi/lib/thumb/v6-m/crt0.o (atexit)
/usr/lib/gcc/arm-none-eabi/7.3.1/../../../arm-none-eabi/lib/thumb/v6-m/libg.a(lib_a-fini.o)
                              /usr/lib/gcc/arm-none-eabi/7.3.1/../../../arm-none-eabi/lib/thumb/v6-m/crt0.o (__libc_fini_array)
/usr/lib/gcc/arm-none-eabi/7.3.1/../../../arm-none-eabi/lib/thumb/v6-m/libg.a(lib_a-init.o)
                              /usr/lib/gcc/arm-none-eabi/7.3.1/../../../arm-none-eabi/lib/thumb/v6-m/crt0.o (__libc_init_array)
/usr/lib/gcc/arm-none-eabi/7.3.1/../../../arm-none-eabi/lib/thumb/v6-m/libg.a(lib_a-memmove.o)
                              devroot.o (memmove)
/usr/lib/gcc/arm-none-eabi/7.3.1/../../../arm-none-eabi/lib/thumb/v6-m/libg.a(lib_a-strchr.o)
                              devcons.o (strchr)
/usr/lib/gcc/arm-none-eabi/7.3.1/../../../arm-none-eabi/lib/thumb/v6-m/libg.a(lib_a-__atexit.o)
                              /usr/lib/gcc/arm-none-eabi/7.3.1/../../../arm-none-eabi/lib/thumb/v6-m/libg.a(lib_a-atexit.o) (__register_exitproc)
/usr/lib/gcc/arm-none-eabi/7.3.1/../../../arm-none-eabi/lib/thumb/v6-m/libg.a(lib_a-impure.o)
                              /usr/lib/gcc/arm-none-eabi/7.3.1/../../../arm-none-eabi/lib/thumb/v6-m/libg.a(lib_a-__atexit.o) (_global_impure_ptr)

Allocating common symbols
Common symbol       size              file

TFileIO             0x4               inferno.o
gcsweeps            0x4               /home/pi/github/inferno-pico/Pico/arm/lib/libinterp.a(gc.o)
procalloc           0x18              proc.o
printq              0x4               devcons.o
tod                 0x58              tod.o
conf                0x28              main.o
proctrace           0x4               main.o
chanalloc           0x1c              chan.o
gcnruns             0x4               /home/pi/github/inferno-pico/Pico/arm/lib/libinterp.a(gc.o)
screenputs          0x4               main.o
dontcompile         0x4               /home/pi/github/inferno-pico/Pico/arm/lib/libinterp.a(load.o)
kscanid             0x4               devcons.o
kbdq                0x4               devcons.o
gcdestroys          0x8               /home/pi/github/inferno-pico/Pico/arm/lib/libinterp.a(gc.o)
Twrchan             0x4               devsrv.o
pidalloc            0x14              proc.o
gcinspects          0x8               /home/pi/github/inferno-pico/Pico/arm/lib/libinterp.a(gc.o)
mflag               0x4               /home/pi/github/inferno-pico/Pico/arm/lib/libinterp.a(gc.o)
ptr                 0x4               /home/pi/github/inferno-pico/Pico/arm/lib/libinterp.a(gc.o)
intrcount           0x4               portclock.o
klogq               0x4               devcons.o
kscanq              0x4               devcons.o
Trdchan             0x4               devsrv.o
gchalted            0x4               /home/pi/github/inferno-pico/Pico/arm/lib/libinterp.a(gc.o)
eve                 0x4               devcons.o
nrdy                0x4               proc.o
mntstats            0x4               devmnt.o
modules             0x4               /home/pi/github/inferno-pico/Pico/arm/lib/libinterp.a(load.o)
active              0x18              main.o
bflag               0x4               dis.o
ialloc              0x14              allocb.o
grandomlk           0x1c              devcons.o
doquote             0x4               /home/pi/github/inferno-pico/Pico/arm/lib/libkern.a(fmt.o)
snil                0x10              /home/pi/github/inferno-pico/Pico/arm/lib/libinterp.a(xec.o)
gcidlepass          0x8               dis.o
talarm              0x14              alarm.o
fcallcount          0x4               portclock.o
fmtalloc            0x204             /home/pi/github/inferno-pico/Pico/arm/lib/libkern.a(fmt.o)
comvec              0x4               /home/pi/github/inferno-pico/Pico/arm/lib/libinterp.a(comp-arm.o)
sysname             0x4               devcons.o
gcbusy              0x8               dis.o
nprop               0x4               /home/pi/github/inferno-pico/Pico/arm/lib/libinterp.a(gc.o)
machaddr            0xd0              main.o
gchalt              0x4               /home/pi/github/inferno-pico/Pico/arm/lib/libinterp.a(gc.o)
exq                 0x48              exportfs.o
isched              0x50              dis.o
R                   0x3c              /home/pi/github/inferno-pico/Pico/arm/lib/libinterp.a(xec.o)
mntalloc            0x2028            devmnt.o
heapmonitor         0x4               /home/pi/github/inferno-pico/Pico/arm/lib/libinterp.a(heap.o)
boottime            0x4               devcons.o
noblockcnt          0x4               qio.o
serwrite            0x4               main.o
gcpartial           0x8               dis.o
gcbroken            0x4               /home/pi/github/inferno-pico/Pico/arm/lib/libinterp.a(gc.o)
lineq               0x4               devcons.o
uart_char_to_line_feed
                    0x4               /home/pi/github/inferno-pico/Pico/arm/lib/libpico.a(uart.o)
gcidle              0x8               dis.o
iprintscreenputs    0x4               devcons.o
m                   0x4               main.o
TFD                 0x4               inferno.o
gcepochs            0x4               /home/pi/github/inferno-pico/Pico/arm/lib/libinterp.a(gc.o)
opnam               0x400             /home/pi/github/inferno-pico/Pico/arm/lib/libinterp.a(conv.o)
kproftick           0x4               main.o

Discarded input sections

 .text          0x00000000        0x0 /usr/lib/gcc/arm-none-eabi/7.3.1/thumb/v6-m/crti.o
 .data          0x00000000        0x0 /usr/lib/gcc/arm-none-eabi/7.3.1/thumb/v6-m/crti.o
 .bss           0x00000000        0x0 /usr/lib/gcc/arm-none-eabi/7.3.1/thumb/v6-m/crti.o
 .data          0x00000000        0x4 /usr/lib/gcc/arm-none-eabi/7.3.1/thumb/v6-m/crtbegin.o
 .fini_array    0x00000000        0x4 /usr/lib/gcc/arm-none-eabi/7.3.1/thumb/v6-m/crtbegin.o
 .text          0x00000000       0x6c /usr/lib/gcc/arm-none-eabi/7.3.1/../../../arm-none-eabi/lib/thumb/v6-m/crt0.o
 .data          0x00000000        0x0 /usr/lib/gcc/arm-none-eabi/7.3.1/../../../arm-none-eabi/lib/thumb/v6-m/crt0.o
 .bss           0x00000000        0x0 /usr/lib/gcc/arm-none-eabi/7.3.1/../../../arm-none-eabi/lib/thumb/v6-m/crt0.o
 .ARM.extab     0x00000000        0x0 /usr/lib/gcc/arm-none-eabi/7.3.1/../../../arm-none-eabi/lib/thumb/v6-m/crt0.o
 .ARM.exidx     0x00000000        0x8 /usr/lib/gcc/arm-none-eabi/7.3.1/../../../arm-none-eabi/lib/thumb/v6-m/crt0.o
 .debug_line    0x00000000       0x86 /usr/lib/gcc/arm-none-eabi/7.3.1/../../../arm-none-eabi/lib/thumb/v6-m/crt0.o
 .debug_info    0x00000000       0x26 /usr/lib/gcc/arm-none-eabi/7.3.1/../../../arm-none-eabi/lib/thumb/v6-m/crt0.o
 .debug_abbrev  0x00000000       0x14 /usr/lib/gcc/arm-none-eabi/7.3.1/../../../arm-none-eabi/lib/thumb/v6-m/crt0.o
 .debug_aranges
                0x00000000       0x20 /usr/lib/gcc/arm-none-eabi/7.3.1/../../../arm-none-eabi/lib/thumb/v6-m/crt0.o
 .debug_str     0x00000000       0x82 /usr/lib/gcc/arm-none-eabi/7.3.1/../../../arm-none-eabi/lib/thumb/v6-m/crt0.o
 .ARM.attributes
                0x00000000       0x1b /usr/lib/gcc/arm-none-eabi/7.3.1/../../../arm-none-eabi/lib/thumb/v6-m/crt0.o
 .text          0x00000000        0x0 main.o
 .data          0x00000000        0x0 main.o
 .bss           0x00000000        0x0 main.o
 .data          0x00000000        0x0 armv6.o
 .bss           0x00000000        0x0 armv6.o
 .text          0x00000000        0x0 devroot.o
 .data          0x00000000        0x0 devroot.o
 .bss           0x00000000        0x0 devroot.o
 .text          0x00000000        0x0 devcons.o
 .data          0x00000000        0x0 devcons.o
 .bss           0x00000000        0x0 devcons.o
 .text.seedrand
                0x00000000       0x10 devcons.o
 .text.fprint   0x00000000       0x2a devcons.o
 .text.kprint   0x00000000       0x48 devcons.o
 .text.sysfatal
                0x00000000       0x20 devcons.o
 .text.pprint   0x00000000       0xf4 devcons.o
 .text.kbdcr2nl
                0x00000000       0x10 devcons.o
 .text.kbdrepeat
                0x00000000       0x18 devcons.o
 .text.kbdclock
                0x00000000       0x5c devcons.o
 .text.osusectime
                0x00000000       0x30 devcons.o
 .text.nsec     0x00000000       0x12 devcons.o
 .text.nrand    0x00000000       0x48 devcons.o
 .text.rand     0x00000000       0x14 devcons.o
 .text.truerand
                0x00000000       0x12 devcons.o
 .text._genrandomqlock
                0x00000000       0x10 devcons.o
 .text._genrandomqunlock
                0x00000000       0x10 devcons.o
 .bss.randn     0x00000000        0x4 devcons.o
 .rodata.pprint.str1.4
                0x00000000        0xf devcons.o
 .text          0x00000000        0x0 devenv.o
 .data          0x00000000        0x0 devenv.o
 .bss           0x00000000        0x0 devenv.o
 .text          0x00000000        0x0 devmnt.o
 .data          0x00000000        0x0 devmnt.o
 .bss           0x00000000        0x0 devmnt.o
 .text          0x00000000        0x0 devpipe.o
 .data          0x00000000        0x0 devpipe.o
 .bss           0x00000000        0x0 devpipe.o
 .text          0x00000000        0x0 devprog.o
 .data          0x00000000        0x0 devprog.o
 .bss           0x00000000        0x0 devprog.o
 .text          0x00000000        0x0 devsrv.o
 .data          0x00000000        0x0 devsrv.o
 .bss           0x00000000        0x0 devsrv.o
 .text          0x00000000        0x0 devdup.o
 .data          0x00000000        0x0 devdup.o
 .bss           0x00000000        0x0 devdup.o
 .text          0x00000000        0x0 archpico.o
 .data          0x00000000        0x0 archpico.o
 .bss           0x00000000        0x0 archpico.o
 .text.microdelay
                0x00000000        0xa archpico.o
 .text.delay    0x00000000        0x8 archpico.o
 .text          0x00000000        0x0 alarm.o
 .data          0x00000000        0x0 alarm.o
 .bss           0x00000000        0x0 alarm.o
 .text          0x00000000        0x0 alloc.o
 .data          0x00000000        0x0 alloc.o
 .bss           0x00000000        0x0 alloc.o
 .text.poolmutable
                0x00000000       0x40 alloc.o
 .text.poolname
                0x00000000        0x4 alloc.o
 .text.getmalloctag
                0x00000000        0x6 alloc.o
 .text.getrealloctag
                0x00000000        0x6 alloc.o
 .text.pooldump
                0x00000000       0x64 alloc.o
 .text.poolshow
                0x00000000       0x38 alloc.o
 .text.poolsetcompact
                0x00000000        0x4 alloc.o
 .text.calloc   0x00000000        0xa alloc.o
 .text.poolaudit
                0x00000000      0x108 alloc.o
 .rodata.poolaudit.str1.4
                0x00000000       0x49 alloc.o
 .rodata.pooldump.str1.4
                0x00000000       0x4f alloc.o
 .rodata.poolshow.str1.4
                0x00000000       0x17 alloc.o
 .text          0x00000000        0x0 allocb.o
 .data          0x00000000        0x0 allocb.o
 .bss           0x00000000        0x0 allocb.o
 .text.checkb   0x00000000       0xd8 allocb.o
 .rodata.checkb.str1.4
                0x00000000       0xfa allocb.o
 .text          0x00000000        0x0 chan.o
 .data          0x00000000        0x0 chan.o
 .bss           0x00000000        0x0 chan.o
 .text.chandevshutdown
                0x00000000       0x2c chan.o
 .text.eqqid    0x00000000       0x26 chan.o
 .text.saveregisters
                0x00000000        0x2 chan.o
 .text          0x00000000        0x0 portclock.o
 .data          0x00000000        0x0 portclock.o
 .bss           0x00000000        0x0 portclock.o
 .text.timerdel
                0x00000000       0x5c portclock.o
 .text.tk2ms    0x00000000       0x18 portclock.o
 .text.ms2tk    0x00000000       0x2c portclock.o
 .text          0x00000000        0x0 dev.o
 .data          0x00000000        0x0 dev.o
 .bss           0x00000000        0x0 dev.o
 .text.devpower
                0x00000000       0x10 dev.o
 .text.devconfig
                0x00000000       0x10 dev.o
 .text.devbyname
                0x00000000       0x2c dev.o
 .text          0x00000000        0x0 dial.o
 .data          0x00000000        0x0 dial.o
 .bss           0x00000000        0x0 dial.o
 .text          0x00000000        0x0 dis.o
 .data          0x00000000        0x0 dis.o
 .bss           0x00000000        0x0 dis.o
 .text.nprog    0x00000000       0x18 dis.o
 .text.printgrp
                0x00000000       0x64 dis.o
 .text.disfault
                0x00000000       0x84 dis.o
 .rodata.disfault.str1.4
                0x00000000       0x5b dis.o
 .rodata.printgrp.str1.4
                0x00000000       0x2f dis.o
 .text          0x00000000        0x0 discall.o
 .data          0x00000000        0x0 discall.o
 .bss           0x00000000        0x0 discall.o
 .text.libqlowner
                0x00000000        0x4 discall.o
 .text.libqlock
                0x00000000       0x38 discall.o
 .text.libqunlock
                0x00000000       0x34 discall.o
 .text.libqlalloc
                0x00000000        0xc discall.o
 .text.libqlfree
                0x00000000        0x8 discall.o
 .text.libseek  0x00000000       0x2c discall.o
 .text.libread  0x00000000       0x20 discall.o
 .text.libreadn
                0x00000000       0x3c discall.o
 .text.libwrite
                0x00000000       0x20 discall.o
 .text.libopen  0x00000000       0x1c discall.o
 .text.libclose
                0x00000000       0x18 discall.o
 .text.libdirfstat
                0x00000000       0x18 discall.o
 .text.libbind  0x00000000       0x20 discall.o
 .text.libchanclose
                0x00000000       0x14 discall.o
 .text.libfdtochan
                0x00000000       0x68 discall.o
 .rodata.libqlock.str1.4
                0x00000000        0x9 discall.o
 .rodata.libqunlock.str1.4
                0x00000000       0x1d discall.o
 .debug_info    0x00000000     0x2d5f discall.o
 .debug_abbrev  0x00000000      0x343 discall.o
 .debug_loc     0x00000000      0x6c6 discall.o
 .debug_aranges
                0x00000000       0x90 discall.o
 .debug_ranges  0x00000000       0x80 discall.o
 .debug_line    0x00000000      0x24a discall.o
 .debug_str     0x00000000      0xeed discall.o
 .comment       0x00000000       0x58 discall.o
 .debug_frame   0x00000000      0x1a0 discall.o
 .ARM.attributes
                0x00000000       0x32 discall.o
 .text          0x00000000        0x0 exception.o
 .data          0x00000000        0x0 exception.o
 .bss           0x00000000        0x0 exception.o
 .text          0x00000000        0x0 exportfs.o
 .data          0x00000000        0x0 exportfs.o
 .bss           0x00000000        0x0 exportfs.o
 .text          0x00000000        0x0 inferno.o
 .data          0x00000000        0x0 inferno.o
 .bss           0x00000000        0x0 inferno.o
 .text.seterror
                0x00000000       0x24 inferno.o
 .text          0x00000000        0x0 latin1.o
 .data          0x00000000        0x0 latin1.o
 .bss           0x00000000        0x0 latin1.o
 .text          0x00000000        0x0 mul64fract.o
 .data          0x00000000        0x0 mul64fract.o
 .bss           0x00000000        0x0 mul64fract.o
 .text          0x00000000        0x0 nocache.o
 .data          0x00000000        0x0 nocache.o
 .bss           0x00000000        0x0 nocache.o
 .text          0x00000000        0x0 nodynld.o
 .data          0x00000000        0x0 nodynld.o
 .bss           0x00000000        0x0 nodynld.o
 .text.dynimport
                0x00000000        0x4 nodynld.o
 .text.dynobjfree
                0x00000000        0x2 nodynld.o
 .text.kdynloadfd
                0x00000000        0x4 nodynld.o
 .text.kdynloadable
                0x00000000        0x4 nodynld.o
 .text.dynld    0x00000000        0x4 nodynld.o
 .text          0x00000000        0x0 parse.o
 .data          0x00000000        0x0 parse.o
 .bss           0x00000000        0x0 parse.o
 .text          0x00000000        0x0 pgrp.o
 .data          0x00000000        0x0 pgrp.o
 .bss           0x00000000        0x0 pgrp.o
 .text          0x00000000        0x0 print.o
 .data          0x00000000        0x0 print.o
 .bss           0x00000000        0x0 print.o
 .text._efgfmt  0x00000000        0x6 print.o
 .text          0x00000000        0x0 proc.o
 .data          0x00000000        0x0 proc.o
 .bss           0x00000000        0x0 proc.o
 .text.rptactive
                0x00000000       0x1a proc.o
 .text.preemption
                0x00000000       0x60 proc.o
 .text.werrstr  0x00000000       0x30 proc.o
 .text.rproc    0x00000000       0xf0 proc.o
 .text.waserr   0x00000000       0x1c proc.o
 .text.poperr   0x00000000       0x14 proc.o
 .text.enverror
                0x00000000       0x10 proc.o
 .text.setid    0x00000000       0x28 proc.o
 .text.rptwakeup
                0x00000000       0x20 proc.o
 .text.rptproc  0x00000000       0x40 proc.o
 .data.Ebadexec
                0x00000000       0x14 proc.o
 .data.Ebadld   0x00000000       0x18 proc.o
 .data.Econinuse
                0x00000000       0x12 proc.o
 .data.Econrefused
                0x00000000       0x13 proc.o
 .data.Eio      0x00000000        0xa proc.o
 .data.Eioload  0x00000000       0x19 proc.o
 .data.Emouseset
                0x00000000       0x17 proc.o
 .data.Emsgsize
                0x00000000       0x20 proc.o
 .data.Eneedservice
                0x00000000       0x26 proc.o
 .data.Enetaddr
                0x00000000       0x14 proc.o
 .data.Enetbusy
                0x00000000       0x24 proc.o
 .data.Enobitstore
                0x00000000       0x15 proc.o
 .data.Enochild
                0x00000000       0x13 proc.o
 .data.Enoenv   0x00000000       0x1e proc.o
 .data.Enoerror
                0x00000000        0x9 proc.o
 .data.Enoifc   0x00000000       0x29 proc.o
 .data.Enolisten
                0x00000000        0xe proc.o
 .data.Enoport  0x00000000       0x1b proc.o
 .data.Enoproto
                0x00000000       0x1f proc.o
 .data.Enovmem  0x00000000       0x1e proc.o
 .data.Erecover
                0x00000000       0x15 proc.o
 .data.Esfnotcached
                0x00000000       0x13 proc.o
 .data.Eshutdown
                0x00000000       0x19 proc.o
 .data.Esoverlap
                0x00000000       0x11 proc.o
 .data.Etimedout
                0x00000000       0x15 proc.o
 .rodata.rproc.str1.4
                0x00000000        0x1 proc.o
 .text          0x00000000        0x0 qio.o
 .data          0x00000000        0x0 qio.o
 .bss           0x00000000        0x0 qio.o
 .text.padblock
                0x00000000       0xbc qio.o
 .text.concatblock
                0x00000000       0x58 qio.o
 .text.trimblock
                0x00000000       0x64 qio.o
 .text.copyblock
                0x00000000       0x60 qio.o
 .text.adjustblock
                0x00000000       0x4a qio.o
 .text.pullblock
                0x00000000       0x46 qio.o
 .text.qget     0x00000000       0x76 qio.o
 .text.qconsume
                0x00000000       0xf0 qio.o
 .text.qpass    0x00000000       0xc0 qio.o
 .text.qpassnolim
                0x00000000       0xa4 qio.o
 .text.packblock
                0x00000000       0x54 qio.o
 .text.qcopy    0x00000000       0x94 qio.o
 .text.qbypass  0x00000000       0x1e qio.o
 .text.mem2bl   0x00000000       0x98 qio.o
 .text.qisclosed
                0x00000000        0x8 qio.o
 .text.qwindow  0x00000000        0xe qio.o
 .text.qsetlimit
                0x00000000        0x4 qio.o
 .text.qflush   0x00000000       0x28 qio.o
 .text.qfull    0x00000000        0x8 qio.o
 .text.qstate   0x00000000        0x4 qio.o
 .text.qdump    0x00000000       0x2c qio.o
 .rodata.padblock.str1.4
                0x00000000       0x10 qio.o
 .rodata.qdump.str1.4
                0x00000000       0x3b qio.o
 .text          0x00000000        0x0 qlock.o
 .data          0x00000000        0x0 qlock.o
 .bss           0x00000000        0x0 qlock.o
 .text          0x00000000        0x0 random.o
 .data          0x00000000        0x0 random.o
 .bss           0x00000000        0x0 random.o
 .text          0x00000000        0x0 sysfile.o
 .data          0x00000000        0x0 sysfile.o
 .bss           0x00000000        0x0 sysfile.o
 .text.kchanio  0x00000000       0xa4 sysfile.o
 .text.kfstat   0x00000000       0xb0 sysfile.o
 .text.kstat    0x00000000       0x9c sysfile.o
 .text          0x00000000        0x0 taslock.o
 .data          0x00000000        0x0 taslock.o
 .bss           0x00000000        0x0 taslock.o
 .text          0x00000000        0x0 tod.o
 .data          0x00000000        0x0 tod.o
 .bss           0x00000000        0x0 tod.o
 .text.todset   0x00000000       0xc4 tod.o
 .text.tseconds
                0x00000000       0x18 tod.o
 .text.ms2fastticks
                0x00000000       0x30 tod.o
 .text.fastticks2ns
                0x00000000       0x38 tod.o
 .text          0x00000000        0x0 xalloc.o
 .data          0x00000000        0x0 xalloc.o
 .bss           0x00000000        0x0 xalloc.o
 .text.xspanalloc
                0x00000000       0x68 xalloc.o
 .text.xfree    0x00000000       0x34 xalloc.o
 .text.xmerge   0x00000000       0x54 xalloc.o
 .rodata.xfree.str1.4
                0x00000000       0x1d xalloc.o
 .rodata.xmerge.str1.4
                0x00000000       0x29 xalloc.o
 .rodata.xspanalloc.str1.4
                0x00000000       0x1a xalloc.o
 .text          0x00000000        0x0 dump.o
 .data          0x00000000        0x0 dump.o
 .bss           0x00000000        0x0 dump.o
 .text.isvalid_va
                0x00000000       0x10 dump.o
 .text.dumplongs
                0x00000000       0x70 dump.o
 .text.dumparound
                0x00000000       0x80 dump.o
 .text.dumpregs
                0x00000000       0xf4 dump.o
 .rodata.dumparound.str1.4
                0x00000000       0x24 dump.o
 .rodata.dumplongs.str1.4
                0x00000000       0x2d dump.o
 .rodata.dumpregs.str1.4
                0x00000000      0x162 dump.o
 .text          0x00000000        0x0 pico.root.o
 .data          0x00000000        0x0 pico.root.o
 .bss           0x00000000        0x0 pico.root.o
 .text          0x00000000        0x0 pico.o
 .data          0x00000000        0x0 pico.o
 .bss           0x00000000        0x0 pico.o
 .bss.panicreset
                0x00000000        0x4 pico.o
 .data.debug_keys
                0x00000000        0x1 pico.o
 .data.kernel_pool_pcnt
                0x00000000        0x4 pico.o
 .data.ndevs    0x00000000        0x4 pico.o
 .data.redirectconsole
                0x00000000        0x4 pico.o
 .bss           0x00000000        0x0 /home/pi/github/inferno-pico/Pico/arm/lib/libinterp.a(alt.o)
 .bss           0x00000000        0x0 /home/pi/github/inferno-pico/Pico/arm/lib/libinterp.a(dec.o)
 .bss           0x00000000        0x0 /home/pi/github/inferno-pico/Pico/arm/lib/libinterp.a(heap.o)
 .data          0x00000000        0x0 /home/pi/github/inferno-pico/Pico/arm/lib/libinterp.a(link.o)
 .bss           0x00000000        0x0 /home/pi/github/inferno-pico/Pico/arm/lib/libinterp.a(link.o)
 .data          0x00000000        0x0 /home/pi/github/inferno-pico/Pico/arm/lib/libinterp.a(load.o)
 .bss           0x00000000        0x0 /home/pi/github/inferno-pico/Pico/arm/lib/libinterp.a(load.o)
 .bss           0x00000000        0x0 /home/pi/github/inferno-pico/Pico/arm/lib/libinterp.a(math.o)
 .text          0x00000000        0x0 /home/pi/github/inferno-pico/Pico/arm/lib/libinterp.a(raise.o)
 .bss           0x00000000        0x0 /home/pi/github/inferno-pico/Pico/arm/lib/libinterp.a(raise.o)
 .data          0x00000000        0x0 /home/pi/github/inferno-pico/Pico/arm/lib/libinterp.a(readmod.o)
 .bss           0x00000000        0x0 /home/pi/github/inferno-pico/Pico/arm/lib/libinterp.a(readmod.o)
 .bss           0x00000000        0x0 /home/pi/github/inferno-pico/Pico/arm/lib/libinterp.a(runt.o)
 .data          0x00000000        0x0 /home/pi/github/inferno-pico/Pico/arm/lib/libinterp.a(sign.o)
 .bss           0x00000000        0x0 /home/pi/github/inferno-pico/Pico/arm/lib/libinterp.a(sign.o)
 .data          0x00000000        0x0 /home/pi/github/inferno-pico/Pico/arm/lib/libinterp.a(stack.o)
 .bss           0x00000000        0x0 /home/pi/github/inferno-pico/Pico/arm/lib/libinterp.a(stack.o)
 .bss           0x00000000        0x0 /home/pi/github/inferno-pico/Pico/arm/lib/libinterp.a(xec.o)
 .bss           0x00000000        0x0 /home/pi/github/inferno-pico/Pico/arm/lib/libinterp.a(das-arm.o)
 .data          0x00000000        0x0 /home/pi/github/inferno-pico/Pico/arm/lib/libinterp.a(string.o)
 .data          0x00000000        0x0 /home/pi/github/inferno-pico/Pico/arm/lib/libinterp.a(dlm-Pico.o)
 .bss           0x00000000        0x0 /home/pi/github/inferno-pico/Pico/arm/lib/libinterp.a(dlm-Pico.o)
 .data          0x00000000        0x0 /home/pi/github/inferno-pico/Pico/arm/lib/libmath.a(blas.o)
 .bss           0x00000000        0x0 /home/pi/github/inferno-pico/Pico/arm/lib/libmath.a(blas.o)
 .data          0x00000000        0x0 /home/pi/github/inferno-pico/Pico/arm/lib/libmath.a(dtoa.o)
 .data          0x00000000        0x0 /home/pi/github/inferno-pico/Pico/arm/lib/libmath.a(fdim.o)
 .bss           0x00000000        0x0 /home/pi/github/inferno-pico/Pico/arm/lib/libmath.a(fdim.o)
 .data          0x00000000        0x0 /home/pi/github/inferno-pico/Pico/arm/lib/libmath.a(FPcontrol-Pico.o)
 .bss           0x00000000        0x0 /home/pi/github/inferno-pico/Pico/arm/lib/libmath.a(FPcontrol-Pico.o)
 .data          0x00000000        0x0 /home/pi/github/inferno-pico/Pico/arm/lib/libmath.a(gemm.o)
 .bss           0x00000000        0x0 /home/pi/github/inferno-pico/Pico/arm/lib/libmath.a(gemm.o)
 .data          0x00000000        0x0 /home/pi/github/inferno-pico/Pico/arm/lib/libmath.a(gfltconv.o)
 .bss           0x00000000        0x0 /home/pi/github/inferno-pico/Pico/arm/lib/libmath.a(gfltconv.o)
 .data          0x00000000        0x0 /home/pi/github/inferno-pico/Pico/arm/lib/libmath.a(pow10.o)
 .bss           0x00000000        0x0 /home/pi/github/inferno-pico/Pico/arm/lib/libmath.a(pow10.o)
 .data          0x00000000        0x0 /home/pi/github/inferno-pico/Pico/arm/lib/libmath.a(e_acos.o)
 .bss           0x00000000        0x0 /home/pi/github/inferno-pico/Pico/arm/lib/libmath.a(e_acos.o)
 .data          0x00000000        0x0 /home/pi/github/inferno-pico/Pico/arm/lib/libmath.a(e_acosh.o)
 .bss           0x00000000        0x0 /home/pi/github/inferno-pico/Pico/arm/lib/libmath.a(e_acosh.o)
 .data          0x00000000        0x0 /home/pi/github/inferno-pico/Pico/arm/lib/libmath.a(e_asin.o)
 .bss           0x00000000        0x0 /home/pi/github/inferno-pico/Pico/arm/lib/libmath.a(e_asin.o)
 .data          0x00000000        0x0 /home/pi/github/inferno-pico/Pico/arm/lib/libmath.a(e_atan2.o)
 .bss           0x00000000        0x0 /home/pi/github/inferno-pico/Pico/arm/lib/libmath.a(e_atan2.o)
 .data          0x00000000        0x0 /home/pi/github/inferno-pico/Pico/arm/lib/libmath.a(e_atanh.o)
 .bss           0x00000000        0x0 /home/pi/github/inferno-pico/Pico/arm/lib/libmath.a(e_atanh.o)
 .data          0x00000000        0x0 /home/pi/github/inferno-pico/Pico/arm/lib/libmath.a(e_cosh.o)
 .bss           0x00000000        0x0 /home/pi/github/inferno-pico/Pico/arm/lib/libmath.a(e_cosh.o)
 .data          0x00000000        0x0 /home/pi/github/inferno-pico/Pico/arm/lib/libmath.a(e_exp.o)
 .bss           0x00000000        0x0 /home/pi/github/inferno-pico/Pico/arm/lib/libmath.a(e_exp.o)
 .data          0x00000000        0x0 /home/pi/github/inferno-pico/Pico/arm/lib/libmath.a(e_fmod.o)
 .bss           0x00000000        0x0 /home/pi/github/inferno-pico/Pico/arm/lib/libmath.a(e_fmod.o)
 .data          0x00000000        0x0 /home/pi/github/inferno-pico/Pico/arm/lib/libmath.a(e_hypot.o)
 .bss           0x00000000        0x0 /home/pi/github/inferno-pico/Pico/arm/lib/libmath.a(e_hypot.o)
 .data          0x00000000        0x0 /home/pi/github/inferno-pico/Pico/arm/lib/libmath.a(e_j0.o)
 .bss           0x00000000        0x0 /home/pi/github/inferno-pico/Pico/arm/lib/libmath.a(e_j0.o)
 .data          0x00000000        0x0 /home/pi/github/inferno-pico/Pico/arm/lib/libmath.a(e_j1.o)
 .bss           0x00000000        0x0 /home/pi/github/inferno-pico/Pico/arm/lib/libmath.a(e_j1.o)
 .data          0x00000000        0x0 /home/pi/github/inferno-pico/Pico/arm/lib/libmath.a(e_jn.o)
 .bss           0x00000000        0x0 /home/pi/github/inferno-pico/Pico/arm/lib/libmath.a(e_jn.o)
 .data          0x00000000        0x0 /home/pi/github/inferno-pico/Pico/arm/lib/libmath.a(e_lgamma_r.o)
 .bss           0x00000000        0x0 /home/pi/github/inferno-pico/Pico/arm/lib/libmath.a(e_lgamma_r.o)
 .data          0x00000000        0x0 /home/pi/github/inferno-pico/Pico/arm/lib/libmath.a(e_log.o)
 .bss           0x00000000        0x0 /home/pi/github/inferno-pico/Pico/arm/lib/libmath.a(e_log.o)
 .data          0x00000000        0x0 /home/pi/github/inferno-pico/Pico/arm/lib/libmath.a(e_log10.o)
 .bss           0x00000000        0x0 /home/pi/github/inferno-pico/Pico/arm/lib/libmath.a(e_log10.o)
 .data          0x00000000        0x0 /home/pi/github/inferno-pico/Pico/arm/lib/libmath.a(e_pow.o)
 .bss           0x00000000        0x0 /home/pi/github/inferno-pico/Pico/arm/lib/libmath.a(e_pow.o)
 .data          0x00000000        0x0 /home/pi/github/inferno-pico/Pico/arm/lib/libmath.a(e_remainder.o)
 .bss           0x00000000        0x0 /home/pi/github/inferno-pico/Pico/arm/lib/libmath.a(e_remainder.o)
 .data          0x00000000        0x0 /home/pi/github/inferno-pico/Pico/arm/lib/libmath.a(e_sinh.o)
 .bss           0x00000000        0x0 /home/pi/github/inferno-pico/Pico/arm/lib/libmath.a(e_sinh.o)
 .data          0x00000000        0x0 /home/pi/github/inferno-pico/Pico/arm/lib/libmath.a(e_sqrt.o)
 .bss           0x00000000        0x0 /home/pi/github/inferno-pico/Pico/arm/lib/libmath.a(e_sqrt.o)
 .data          0x00000000        0x0 /home/pi/github/inferno-pico/Pico/arm/lib/libmath.a(k_cos.o)
 .bss           0x00000000        0x0 /home/pi/github/inferno-pico/Pico/arm/lib/libmath.a(k_cos.o)
 .data          0x00000000        0x0 /home/pi/github/inferno-pico/Pico/arm/lib/libmath.a(k_sin.o)
 .bss           0x00000000        0x0 /home/pi/github/inferno-pico/Pico/arm/lib/libmath.a(k_sin.o)
 .data          0x00000000        0x0 /home/pi/github/inferno-pico/Pico/arm/lib/libmath.a(s_erf.o)
 .bss           0x00000000        0x0 /home/pi/github/inferno-pico/Pico/arm/lib/libmath.a(s_erf.o)
 .data          0x00000000        0x0 /home/pi/github/inferno-pico/Pico/arm/lib/libmath.a(s_fabs.o)
 .bss           0x00000000        0x0 /home/pi/github/inferno-pico/Pico/arm/lib/libmath.a(s_fabs.o)
 .data          0x00000000        0x0 /home/pi/github/inferno-pico/Pico/arm/lib/libmath.a(s_finite.o)
 .bss           0x00000000        0x0 /home/pi/github/inferno-pico/Pico/arm/lib/libmath.a(s_finite.o)
 .data          0x00000000        0x0 /home/pi/github/inferno-pico/Pico/arm/lib/libmath.a(s_ilogb.o)
 .bss           0x00000000        0x0 /home/pi/github/inferno-pico/Pico/arm/lib/libmath.a(s_ilogb.o)
 .data          0x00000000        0x0 /home/pi/github/inferno-pico/Pico/arm/lib/libmath.a(s_nextafter.o)
 .bss           0x00000000        0x0 /home/pi/github/inferno-pico/Pico/arm/lib/libmath.a(s_nextafter.o)
 .data          0x00000000        0x0 /home/pi/github/inferno-pico/Pico/arm/lib/libmath.a(s_rint.o)
 .bss           0x00000000        0x0 /home/pi/github/inferno-pico/Pico/arm/lib/libmath.a(s_rint.o)
 .data          0x00000000        0x0 /home/pi/github/inferno-pico/Pico/arm/lib/libmath.a(s_scalbn.o)
 .bss           0x00000000        0x0 /home/pi/github/inferno-pico/Pico/arm/lib/libmath.a(s_scalbn.o)
 .data          0x00000000        0x0 /home/pi/github/inferno-pico/Pico/arm/lib/libmath.a(g_fmt.o)
 .bss           0x00000000        0x0 /home/pi/github/inferno-pico/Pico/arm/lib/libmath.a(g_fmt.o)
 .data          0x00000000        0x0 /home/pi/github/inferno-pico/Pico/arm/lib/libkern.a(abort.o)
 .bss           0x00000000        0x0 /home/pi/github/inferno-pico/Pico/arm/lib/libkern.a(abort.o)
 .data          0x00000000        0x0 /home/pi/github/inferno-pico/Pico/arm/lib/libkern.a(abs.o)
 .bss           0x00000000        0x0 /home/pi/github/inferno-pico/Pico/arm/lib/libkern.a(abs.o)
 .data          0x00000000        0x0 /home/pi/github/inferno-pico/Pico/arm/lib/libkern.a(atol.o)
 .bss           0x00000000        0x0 /home/pi/github/inferno-pico/Pico/arm/lib/libkern.a(atol.o)
 .data          0x00000000        0x0 /home/pi/github/inferno-pico/Pico/arm/lib/libkern.a(cleanname.o)
 .bss           0x00000000        0x0 /home/pi/github/inferno-pico/Pico/arm/lib/libkern.a(cleanname.o)
 .data          0x00000000        0x0 /home/pi/github/inferno-pico/Pico/arm/lib/libkern.a(convD2M.o)
 .bss           0x00000000        0x0 /home/pi/github/inferno-pico/Pico/arm/lib/libkern.a(convD2M.o)
 .data          0x00000000        0x0 /home/pi/github/inferno-pico/Pico/arm/lib/libkern.a(convM2D.o)
 .data          0x00000000        0x0 /home/pi/github/inferno-pico/Pico/arm/lib/libkern.a(convM2S.o)
 .bss           0x00000000        0x0 /home/pi/github/inferno-pico/Pico/arm/lib/libkern.a(convM2S.o)
 .data          0x00000000        0x0 /home/pi/github/inferno-pico/Pico/arm/lib/libkern.a(convS2M.o)
 .bss           0x00000000        0x0 /home/pi/github/inferno-pico/Pico/arm/lib/libkern.a(convS2M.o)
 .data          0x00000000        0x0 /home/pi/github/inferno-pico/Pico/arm/lib/libkern.a(dofmt.o)
 .bss           0x00000000        0x0 /home/pi/github/inferno-pico/Pico/arm/lib/libkern.a(dofmt.o)
 .data          0x00000000        0x0 /home/pi/github/inferno-pico/Pico/arm/lib/libkern.a(fcallfmt.o)
 .bss           0x00000000        0x0 /home/pi/github/inferno-pico/Pico/arm/lib/libkern.a(fcallfmt.o)
 .bss           0x00000000        0x0 /home/pi/github/inferno-pico/Pico/arm/lib/libkern.a(fmt.o)
 .data          0x00000000        0x0 /home/pi/github/inferno-pico/Pico/arm/lib/libkern.a(fmtquote.o)
 .bss           0x00000000        0x0 /home/pi/github/inferno-pico/Pico/arm/lib/libkern.a(fmtquote.o)
 .data          0x00000000        0x0 /home/pi/github/inferno-pico/Pico/arm/lib/libkern.a(memchr.o)
 .bss           0x00000000        0x0 /home/pi/github/inferno-pico/Pico/arm/lib/libkern.a(memchr.o)
 .data          0x00000000        0x0 /home/pi/github/inferno-pico/Pico/arm/lib/libkern.a(memcmp.o)
 .bss           0x00000000        0x0 /home/pi/github/inferno-pico/Pico/arm/lib/libkern.a(memcmp.o)
 .data          0x00000000        0x0 /home/pi/github/inferno-pico/Pico/arm/lib/libkern.a(rune.o)
 .bss           0x00000000        0x0 /home/pi/github/inferno-pico/Pico/arm/lib/libkern.a(rune.o)
 .data          0x00000000        0x0 /home/pi/github/inferno-pico/Pico/arm/lib/libkern.a(seprint.o)
 .bss           0x00000000        0x0 /home/pi/github/inferno-pico/Pico/arm/lib/libkern.a(seprint.o)
 .data          0x00000000        0x0 /home/pi/github/inferno-pico/Pico/arm/lib/libkern.a(strcmp.o)
 .bss           0x00000000        0x0 /home/pi/github/inferno-pico/Pico/arm/lib/libkern.a(strcmp.o)
 .data          0x00000000        0x0 /home/pi/github/inferno-pico/Pico/arm/lib/libkern.a(strcpy.o)
 .bss           0x00000000        0x0 /home/pi/github/inferno-pico/Pico/arm/lib/libkern.a(strcpy.o)
 .data          0x00000000        0x0 /home/pi/github/inferno-pico/Pico/arm/lib/libkern.a(strdup.o)
 .bss           0x00000000        0x0 /home/pi/github/inferno-pico/Pico/arm/lib/libkern.a(strdup.o)
 .data          0x00000000        0x0 /home/pi/github/inferno-pico/Pico/arm/lib/libkern.a(strecpy.o)
 .bss           0x00000000        0x0 /home/pi/github/inferno-pico/Pico/arm/lib/libkern.a(strecpy.o)
 .data          0x00000000        0x0 /home/pi/github/inferno-pico/Pico/arm/lib/libkern.a(strlen.o)
 .bss           0x00000000        0x0 /home/pi/github/inferno-pico/Pico/arm/lib/libkern.a(strlen.o)
 .data          0x00000000        0x0 /home/pi/github/inferno-pico/Pico/arm/lib/libkern.a(strncmp.o)
 .bss           0x00000000        0x0 /home/pi/github/inferno-pico/Pico/arm/lib/libkern.a(strncmp.o)
 .data          0x00000000        0x0 /home/pi/github/inferno-pico/Pico/arm/lib/libkern.a(strncpy.o)
 .bss           0x00000000        0x0 /home/pi/github/inferno-pico/Pico/arm/lib/libkern.a(strncpy.o)
 .data          0x00000000        0x0 /home/pi/github/inferno-pico/Pico/arm/lib/libkern.a(strrchr.o)
 .bss           0x00000000        0x0 /home/pi/github/inferno-pico/Pico/arm/lib/libkern.a(strrchr.o)
 .data          0x00000000        0x0 /home/pi/github/inferno-pico/Pico/arm/lib/libkern.a(strstr.o)
 .bss           0x00000000        0x0 /home/pi/github/inferno-pico/Pico/arm/lib/libkern.a(strstr.o)
 .data          0x00000000        0x0 /home/pi/github/inferno-pico/Pico/arm/lib/libkern.a(strtol.o)
 .bss           0x00000000        0x0 /home/pi/github/inferno-pico/Pico/arm/lib/libkern.a(strtol.o)
 .data          0x00000000        0x0 /home/pi/github/inferno-pico/Pico/arm/lib/libkern.a(strtoll.o)
 .bss           0x00000000        0x0 /home/pi/github/inferno-pico/Pico/arm/lib/libkern.a(strtoll.o)
 .data          0x00000000        0x0 /home/pi/github/inferno-pico/Pico/arm/lib/libkern.a(strtoul.o)
 .bss           0x00000000        0x0 /home/pi/github/inferno-pico/Pico/arm/lib/libkern.a(strtoul.o)
 .bss           0x00000000        0x0 /home/pi/github/inferno-pico/Pico/arm/lib/libkern.a(tokenize.o)
 .data          0x00000000        0x0 /home/pi/github/inferno-pico/Pico/arm/lib/libkern.a(utflen.o)
 .bss           0x00000000        0x0 /home/pi/github/inferno-pico/Pico/arm/lib/libkern.a(utflen.o)
 .data          0x00000000        0x0 /home/pi/github/inferno-pico/Pico/arm/lib/libkern.a(utfnlen.o)
 .bss           0x00000000        0x0 /home/pi/github/inferno-pico/Pico/arm/lib/libkern.a(utfnlen.o)
 .data          0x00000000        0x0 /home/pi/github/inferno-pico/Pico/arm/lib/libkern.a(utfrune.o)
 .bss           0x00000000        0x0 /home/pi/github/inferno-pico/Pico/arm/lib/libkern.a(utfrune.o)
 .data          0x00000000        0x0 /home/pi/github/inferno-pico/Pico/arm/lib/libkern.a(vseprint.o)
 .bss           0x00000000        0x0 /home/pi/github/inferno-pico/Pico/arm/lib/libkern.a(vseprint.o)
 .text          0x00000000       0x3c /home/pi/github/inferno-pico/Pico/arm/lib/libkern.a(vsnprint.o)
 .data          0x00000000        0x0 /home/pi/github/inferno-pico/Pico/arm/lib/libkern.a(vsnprint.o)
 .bss           0x00000000        0x0 /home/pi/github/inferno-pico/Pico/arm/lib/libkern.a(vsnprint.o)
 .debug_info    0x00000000      0x20c /home/pi/github/inferno-pico/Pico/arm/lib/libkern.a(vsnprint.o)
 .debug_abbrev  0x00000000      0x126 /home/pi/github/inferno-pico/Pico/arm/lib/libkern.a(vsnprint.o)
 .debug_loc     0x00000000       0xc6 /home/pi/github/inferno-pico/Pico/arm/lib/libkern.a(vsnprint.o)
 .debug_aranges
                0x00000000       0x20 /home/pi/github/inferno-pico/Pico/arm/lib/libkern.a(vsnprint.o)
 .debug_line    0x00000000       0xae /home/pi/github/inferno-pico/Pico/arm/lib/libkern.a(vsnprint.o)
 .debug_str     0x00000000      0x1a0 /home/pi/github/inferno-pico/Pico/arm/lib/libkern.a(vsnprint.o)
 .comment       0x00000000       0x58 /home/pi/github/inferno-pico/Pico/arm/lib/libkern.a(vsnprint.o)
 .debug_frame   0x00000000       0x30 /home/pi/github/inferno-pico/Pico/arm/lib/libkern.a(vsnprint.o)
 .ARM.attributes
                0x00000000       0x32 /home/pi/github/inferno-pico/Pico/arm/lib/libkern.a(vsnprint.o)
 .data          0x00000000        0x0 /home/pi/github/inferno-pico/Pico/arm/lib/libkern.a(frexp-arm.o)
 .bss           0x00000000        0x0 /home/pi/github/inferno-pico/Pico/arm/lib/libkern.a(frexp-arm.o)
 .data          0x00000000        0x0 /home/pi/github/inferno-pico/Pico/arm/lib/libkern.a(getfcr-arm.o)
 .bss           0x00000000        0x0 /home/pi/github/inferno-pico/Pico/arm/lib/libkern.a(getfcr-arm.o)
 .data          0x00000000        0x0 /home/pi/github/inferno-pico/Pico/arm/lib/libkern.a(nan-arm.o)
 .bss           0x00000000        0x0 /home/pi/github/inferno-pico/Pico/arm/lib/libkern.a(nan-arm.o)
 .data          0x00000000        0x0 /home/pi/github/inferno-pico/Pico/arm/lib/libkern.a(memccpy.o)
 .bss           0x00000000        0x0 /home/pi/github/inferno-pico/Pico/arm/lib/libkern.a(memccpy.o)
 .text          0x00000000        0x0 /home/pi/github/inferno-pico/Pico/arm/lib/libpico.a(clocks.o)
 .data          0x00000000        0x0 /home/pi/github/inferno-pico/Pico/arm/lib/libpico.a(clocks.o)
 .bss           0x00000000        0x0 /home/pi/github/inferno-pico/Pico/arm/lib/libpico.a(clocks.o)
 .text.clock_stop
                0x00000000       0x2c /home/pi/github/inferno-pico/Pico/arm/lib/libpico.a(clocks.o)
 .text.clocks_handle_resus
                0x00000000       0x80 /home/pi/github/inferno-pico/Pico/arm/lib/libpico.a(clocks.o)
 .text.clocks_irq_handler
                0x00000000       0x2c /home/pi/github/inferno-pico/Pico/arm/lib/libpico.a(clocks.o)
 .text.clock_set_reported_hz
                0x00000000        0xc /home/pi/github/inferno-pico/Pico/arm/lib/libpico.a(clocks.o)
 .text.frequency_count_khz
                0x00000000       0x40 /home/pi/github/inferno-pico/Pico/arm/lib/libpico.a(clocks.o)
 .text.clocks_enable_resus
                0x00000000       0x34 /home/pi/github/inferno-pico/Pico/arm/lib/libpico.a(clocks.o)
 .text.clock_gpio_init
                0x00000000       0x4c /home/pi/github/inferno-pico/Pico/arm/lib/libpico.a(clocks.o)
 .text.clock_configure_gpin
                0x00000000       0x50 /home/pi/github/inferno-pico/Pico/arm/lib/libpico.a(clocks.o)
 .bss._resus_callback
                0x00000000        0x4 /home/pi/github/inferno-pico/Pico/arm/lib/libpico.a(clocks.o)
 .rodata.__func__.4691
                0x00000000       0x14 /home/pi/github/inferno-pico/Pico/arm/lib/libpico.a(clocks.o)
 .rodata.clocks_handle_resus.str1.4
                0x00000000       0x8b /home/pi/github/inferno-pico/Pico/arm/lib/libpico.a(clocks.o)
 .rodata.clocks_irq_handler.str1.4
                0x00000000       0x17 /home/pi/github/inferno-pico/Pico/arm/lib/libpico.a(clocks.o)
 .rodata.gpin0_src
                0x00000000        0xa /home/pi/github/inferno-pico/Pico/arm/lib/libpico.a(clocks.o)
 .text          0x00000000        0x0 /home/pi/github/inferno-pico/Pico/arm/lib/libpico.a(crt0.o)
 .data          0x00000000        0x0 /home/pi/github/inferno-pico/Pico/arm/lib/libpico.a(crt0.o)
 .bss           0x00000000        0x0 /home/pi/github/inferno-pico/Pico/arm/lib/libpico.a(crt0.o)
 .data          0x00000000        0x0 /home/pi/github/inferno-pico/Pico/arm/lib/libpico.a(double_none.o)
 .bss           0x00000000        0x0 /home/pi/github/inferno-pico/Pico/arm/lib/libpico.a(double_none.o)
 .data          0x00000000        0x0 /home/pi/github/inferno-pico/Pico/arm/lib/libpico.a(float_none.o)
 .bss           0x00000000        0x0 /home/pi/github/inferno-pico/Pico/arm/lib/libpico.a(float_none.o)
 .text          0x00000000        0x0 /home/pi/github/inferno-pico/Pico/arm/lib/libpico.a(gpio.o)
 .data          0x00000000        0x0 /home/pi/github/inferno-pico/Pico/arm/lib/libpico.a(gpio.o)
 .bss           0x00000000        0x0 /home/pi/github/inferno-pico/Pico/arm/lib/libpico.a(gpio.o)
 .text.gpio_get_pad
                0x00000000       0x28 /home/pi/github/inferno-pico/Pico/arm/lib/libpico.a(gpio.o)
 .text.gpio_get_function
                0x00000000       0x14 /home/pi/github/inferno-pico/Pico/arm/lib/libpico.a(gpio.o)
 .text.gpio_set_pulls
                0x00000000       0x34 /home/pi/github/inferno-pico/Pico/arm/lib/libpico.a(gpio.o)
 .text.gpio_set_irqover
                0x00000000       0x24 /home/pi/github/inferno-pico/Pico/arm/lib/libpico.a(gpio.o)
 .text.gpio_set_inover
                0x00000000       0x24 /home/pi/github/inferno-pico/Pico/arm/lib/libpico.a(gpio.o)
 .text.gpio_set_outover
                0x00000000       0x24 /home/pi/github/inferno-pico/Pico/arm/lib/libpico.a(gpio.o)
 .text.gpio_set_oeover
                0x00000000       0x24 /home/pi/github/inferno-pico/Pico/arm/lib/libpico.a(gpio.o)
 .text.gpio_set_input_hysteresis_enabled
                0x00000000       0x30 /home/pi/github/inferno-pico/Pico/arm/lib/libpico.a(gpio.o)
 .text.gpio_is_input_hysteresis_enabled
                0x00000000       0x1c /home/pi/github/inferno-pico/Pico/arm/lib/libpico.a(gpio.o)
 .text.gpio_set_slew_rate
                0x00000000       0x20 /home/pi/github/inferno-pico/Pico/arm/lib/libpico.a(gpio.o)
 .text.gpio_get_slew_rate
                0x00000000       0x14 /home/pi/github/inferno-pico/Pico/arm/lib/libpico.a(gpio.o)
 .text.gpio_set_drive_strength
                0x00000000       0x20 /home/pi/github/inferno-pico/Pico/arm/lib/libpico.a(gpio.o)
 .text.gpio_get_drive_strength
                0x00000000       0x18 /home/pi/github/inferno-pico/Pico/arm/lib/libpico.a(gpio.o)
 .text.gpio_acknowledge_irq
                0x00000000       0x18 /home/pi/github/inferno-pico/Pico/arm/lib/libpico.a(gpio.o)
 .text._gpio_set_irq_enabled
                0x00000000       0x34 /home/pi/github/inferno-pico/Pico/arm/lib/libpico.a(gpio.o)
 .text.gpio_set_irq_enabled
                0x00000000       0x20 /home/pi/github/inferno-pico/Pico/arm/lib/libpico.a(gpio.o)
 .text.gpio_set_irq_enabled_with_callback
                0x00000000       0x30 /home/pi/github/inferno-pico/Pico/arm/lib/libpico.a(gpio.o)
 .text.gpio_set_dormant_irq_enabled
                0x00000000       0x10 /home/pi/github/inferno-pico/Pico/arm/lib/libpico.a(gpio.o)
 .text.gpio_irq_handler
                0x00000000       0x64 /home/pi/github/inferno-pico/Pico/arm/lib/libpico.a(gpio.o)
 .text.gpio_set_input_enabled
                0x00000000       0x30 /home/pi/github/inferno-pico/Pico/arm/lib/libpico.a(gpio.o)
 .text.gpio_init
                0x00000000       0x16 /home/pi/github/inferno-pico/Pico/arm/lib/libpico.a(gpio.o)
 .text.gpio_init_mask
                0x00000000       0x1e /home/pi/github/inferno-pico/Pico/arm/lib/libpico.a(gpio.o)
 .text.gpio_debug_pins_init
                0x00000000       0x18 /home/pi/github/inferno-pico/Pico/arm/lib/libpico.a(gpio.o)
 .bss._callbacks
                0x00000000        0x8 /home/pi/github/inferno-pico/Pico/arm/lib/libpico.a(gpio.o)
 .text          0x00000000        0x0 /home/pi/github/inferno-pico/Pico/arm/lib/libpico.a(irq.o)
 .data          0x00000000        0x0 /home/pi/github/inferno-pico/Pico/arm/lib/libpico.a(irq.o)
 .bss           0x00000000        0x0 /home/pi/github/inferno-pico/Pico/arm/lib/libpico.a(irq.o)
 .text.irq_set_pending
                0x00000000       0x10 /home/pi/github/inferno-pico/Pico/arm/lib/libpico.a(irq.o)
 .text.irq_get_exclusive_handler
                0x00000000       0x4c /home/pi/github/inferno-pico/Pico/arm/lib/libpico.a(irq.o)
 .text.irq_add_shared_handler
                0x00000000      0x224 /home/pi/github/inferno-pico/Pico/arm/lib/libpico.a(irq.o)
 .text.irq_set_priority
                0x00000000       0x28 /home/pi/github/inferno-pico/Pico/arm/lib/libpico.a(irq.o)
 .text.irq_get_priority
                0x00000000       0x20 /home/pi/github/inferno-pico/Pico/arm/lib/libpico.a(irq.o)
 .rodata.__func__.4745
                0x00000000       0x17 /home/pi/github/inferno-pico/Pico/arm/lib/libpico.a(irq.o)
 .text          0x00000000        0x0 /home/pi/github/inferno-pico/Pico/arm/lib/libpico.a(irq_handler_chain.o)
 .bss           0x00000000        0x0 /home/pi/github/inferno-pico/Pico/arm/lib/libpico.a(irq_handler_chain.o)
 .data          0x00000000        0x0 /home/pi/github/inferno-pico/Pico/arm/lib/libpico.a(mem_ops_aeabi.o)
 .bss           0x00000000        0x0 /home/pi/github/inferno-pico/Pico/arm/lib/libpico.a(mem_ops_aeabi.o)
 .text.aeabi_memset_memcpy
                0x00000000       0x24 /home/pi/github/inferno-pico/Pico/arm/lib/libpico.a(mem_ops_aeabi.o)
 .text          0x00000000        0x0 /home/pi/github/inferno-pico/Pico/arm/lib/libpico.a(pico_divider.o)
 .data          0x00000000        0x0 /home/pi/github/inferno-pico/Pico/arm/lib/libpico.a(pico_divider.o)
 .bss           0x00000000        0x0 /home/pi/github/inferno-pico/Pico/arm/lib/libpico.a(pico_divider.o)
 .text.divmod_s64s64_rem
                0x00000000        0xc /home/pi/github/inferno-pico/Pico/arm/lib/libpico.a(pico_divider.o)
 .text.divmod_u64u64_rem
                0x00000000        0xc /home/pi/github/inferno-pico/Pico/arm/lib/libpico.a(pico_divider.o)
 .text          0x00000000        0x0 /home/pi/github/inferno-pico/Pico/arm/lib/libpico.a(pico_malloc.o)
 .data          0x00000000        0x0 /home/pi/github/inferno-pico/Pico/arm/lib/libpico.a(pico_malloc.o)
 .bss           0x00000000        0x0 /home/pi/github/inferno-pico/Pico/arm/lib/libpico.a(pico_malloc.o)
 .text.__wrap_calloc
                0x00000000       0x24 /home/pi/github/inferno-pico/Pico/arm/lib/libpico.a(pico_malloc.o)
 .text          0x00000000        0x0 /home/pi/github/inferno-pico/Pico/arm/lib/libpico.a(platform.o)
 .data          0x00000000        0x0 /home/pi/github/inferno-pico/Pico/arm/lib/libpico.a(platform.o)
 .bss           0x00000000        0x0 /home/pi/github/inferno-pico/Pico/arm/lib/libpico.a(platform.o)
 .text.rp2040_chip_version
                0x00000000       0x4c /home/pi/github/inferno-pico/Pico/arm/lib/libpico.a(platform.o)
 .rodata.__func__.4255
                0x00000000       0x14 /home/pi/github/inferno-pico/Pico/arm/lib/libpico.a(platform.o)
 .rodata.rp2040_chip_version.str1.4
                0x00000000       0x41 /home/pi/github/inferno-pico/Pico/arm/lib/libpico.a(platform.o)
 .text          0x00000000        0x0 /home/pi/github/inferno-pico/Pico/arm/lib/libpico.a(pll.o)
 .data          0x00000000        0x0 /home/pi/github/inferno-pico/Pico/arm/lib/libpico.a(pll.o)
 .bss           0x00000000        0x0 /home/pi/github/inferno-pico/Pico/arm/lib/libpico.a(pll.o)
 .text.pll_deinit
                0x00000000        0x6 /home/pi/github/inferno-pico/Pico/arm/lib/libpico.a(pll.o)
 .text          0x00000000        0x0 /home/pi/github/inferno-pico/Pico/arm/lib/libpico.a(runtime.o)
 .data          0x00000000        0x0 /home/pi/github/inferno-pico/Pico/arm/lib/libpico.a(runtime.o)
 .bss           0x00000000        0x0 /home/pi/github/inferno-pico/Pico/arm/lib/libpico.a(runtime.o)
 .text.runtime_install_stack_guard
                0x00000000       0x40 /home/pi/github/inferno-pico/Pico/arm/lib/libpico.a(runtime.o)
 .text._sbrk    0x00000000       0x38 /home/pi/github/inferno-pico/Pico/arm/lib/libpico.a(runtime.o)
 .text.panic_unsupported
                0x00000000        0xc /home/pi/github/inferno-pico/Pico/arm/lib/libpico.a(runtime.o)
 .text.hard_assertion_failure
                0x00000000        0xc /home/pi/github/inferno-pico/Pico/arm/lib/libpico.a(runtime.o)
 .bss.heap_end.4819
                0x00000000        0x4 /home/pi/github/inferno-pico/Pico/arm/lib/libpico.a(runtime.o)
 .rodata.hard_assertion_failure.str1.4
                0x00000000        0xc /home/pi/github/inferno-pico/Pico/arm/lib/libpico.a(runtime.o)
 .rodata.panic_unsupported.str1.4
                0x00000000        0xe /home/pi/github/inferno-pico/Pico/arm/lib/libpico.a(runtime.o)
 .text          0x00000000        0x0 /home/pi/github/inferno-pico/Pico/arm/lib/libpico.a(stdio.o)
 .data          0x00000000        0x0 /home/pi/github/inferno-pico/Pico/arm/lib/libpico.a(stdio.o)
 .bss           0x00000000        0x0 /home/pi/github/inferno-pico/Pico/arm/lib/libpico.a(stdio.o)
 .text.stdio_get_until
                0x00000000       0x7c /home/pi/github/inferno-pico/Pico/arm/lib/libpico.a(stdio.o)
 .text.__wrap_putchar
                0x00000000       0x1c /home/pi/github/inferno-pico/Pico/arm/lib/libpico.a(stdio.o)
 .text.putchar_raw
                0x00000000       0x1c /home/pi/github/inferno-pico/Pico/arm/lib/libpico.a(stdio.o)
 .text._read    0x00000000       0x24 /home/pi/github/inferno-pico/Pico/arm/lib/libpico.a(stdio.o)
 .text._write   0x00000000       0x20 /home/pi/github/inferno-pico/Pico/arm/lib/libpico.a(stdio.o)
 .text.puts_raw
                0x00000000       0x1e /home/pi/github/inferno-pico/Pico/arm/lib/libpico.a(stdio.o)
 .text.__wrap_getchar
                0x00000000       0x40 /home/pi/github/inferno-pico/Pico/arm/lib/libpico.a(stdio.o)
 .text.getchar_timeout_us
                0x00000000       0x80 /home/pi/github/inferno-pico/Pico/arm/lib/libpico.a(stdio.o)
 .text.stdio_filter_driver
                0x00000000        0xc /home/pi/github/inferno-pico/Pico/arm/lib/libpico.a(stdio.o)
 .text.stdio_set_translate_crlf
                0x00000000       0x10 /home/pi/github/inferno-pico/Pico/arm/lib/libpico.a(stdio.o)
 .rodata.__func__.4555
                0x00000000       0x15 /home/pi/github/inferno-pico/Pico/arm/lib/libpico.a(stdio.o)
 .rodata.__func__.5299
                0x00000000        0xf /home/pi/github/inferno-pico/Pico/arm/lib/libpico.a(stdio.o)
 .rodata.__func__.5305
                0x00000000       0x13 /home/pi/github/inferno-pico/Pico/arm/lib/libpico.a(stdio.o)
 .rodata.__wrap_getchar.str1.4
                0x00000000       0x14 /home/pi/github/inferno-pico/Pico/arm/lib/libpico.a(stdio.o)
 .rodata.getchar_timeout_us.str1.4
                0x00000000       0x4b /home/pi/github/inferno-pico/Pico/arm/lib/libpico.a(stdio.o)
 .text          0x00000000        0x0 /home/pi/github/inferno-pico/Pico/arm/lib/libpico.a(stdio_uart.o)
 .data          0x00000000        0x0 /home/pi/github/inferno-pico/Pico/arm/lib/libpico.a(stdio_uart.o)
 .bss           0x00000000        0x0 /home/pi/github/inferno-pico/Pico/arm/lib/libpico.a(stdio_uart.o)
 .text.stdout_uart_init
                0x00000000       0x28 /home/pi/github/inferno-pico/Pico/arm/lib/libpico.a(stdio_uart.o)
 .text.stdin_uart_init
                0x00000000       0x28 /home/pi/github/inferno-pico/Pico/arm/lib/libpico.a(stdio_uart.o)
 .binary_info.__bi_ptr49
                0x00000000        0x4 /home/pi/github/inferno-pico/Pico/arm/lib/libpico.a(stdio_uart.o)
 .binary_info.__bi_ptr53
                0x00000000        0x4 /home/pi/github/inferno-pico/Pico/arm/lib/libpico.a(stdio_uart.o)
 .binary_info.__bi_ptr61
                0x00000000        0x4 /home/pi/github/inferno-pico/Pico/arm/lib/libpico.a(stdio_uart.o)
 .binary_info.__bi_ptr65
                0x00000000        0x4 /home/pi/github/inferno-pico/Pico/arm/lib/libpico.a(stdio_uart.o)
 .rodata.__bi_49.4722
                0x00000000        0x8 /home/pi/github/inferno-pico/Pico/arm/lib/libpico.a(stdio_uart.o)
 .rodata.__bi_53.4726
                0x00000000        0xc /home/pi/github/inferno-pico/Pico/arm/lib/libpico.a(stdio_uart.o)
 .rodata.__bi_61.4732
                0x00000000        0x8 /home/pi/github/inferno-pico/Pico/arm/lib/libpico.a(stdio_uart.o)
 .rodata.__bi_65.4736
                0x00000000        0xc /home/pi/github/inferno-pico/Pico/arm/lib/libpico.a(stdio_uart.o)
 .text          0x00000000        0x0 /home/pi/github/inferno-pico/Pico/arm/lib/libpico.a(sync.o)
 .data          0x00000000        0x0 /home/pi/github/inferno-pico/Pico/arm/lib/libpico.a(sync.o)
 .bss           0x00000000        0x0 /home/pi/github/inferno-pico/Pico/arm/lib/libpico.a(sync.o)
 .text.spin_lock_init
                0x00000000       0x34 /home/pi/github/inferno-pico/Pico/arm/lib/libpico.a(sync.o)
 .text.spin_lock_claim
                0x00000000       0x18 /home/pi/github/inferno-pico/Pico/arm/lib/libpico.a(sync.o)
 .text.spin_lock_claim_mask
                0x00000000       0x1e /home/pi/github/inferno-pico/Pico/arm/lib/libpico.a(sync.o)
 .text.spin_lock_unclaim
                0x00000000       0x24 /home/pi/github/inferno-pico/Pico/arm/lib/libpico.a(sync.o)
 .text.spin_lock_claim_unused
                0x00000000       0x20 /home/pi/github/inferno-pico/Pico/arm/lib/libpico.a(sync.o)
 .text.spin_lock_is_claimed
                0x00000000       0x10 /home/pi/github/inferno-pico/Pico/arm/lib/libpico.a(sync.o)
 .bss.claimed   0x00000000        0x4 /home/pi/github/inferno-pico/Pico/arm/lib/libpico.a(sync.o)
 .rodata.__func__.4364
                0x00000000        0xf /home/pi/github/inferno-pico/Pico/arm/lib/libpico.a(sync.o)
 .rodata.spin_lock_claim.str1.4
                0x00000000       0x1f /home/pi/github/inferno-pico/Pico/arm/lib/libpico.a(sync.o)
 .rodata.spin_lock_claim_unused.str1.4
                0x00000000       0x1b /home/pi/github/inferno-pico/Pico/arm/lib/libpico.a(sync.o)
 .rodata.spin_lock_init.str1.4
                0x00000000       0x23 /home/pi/github/inferno-pico/Pico/arm/lib/libpico.a(sync.o)
 .text          0x00000000        0x0 /home/pi/github/inferno-pico/Pico/arm/lib/libpico.a(time.o)
 .data          0x00000000        0x0 /home/pi/github/inferno-pico/Pico/arm/lib/libpico.a(time.o)
 .bss           0x00000000        0x0 /home/pi/github/inferno-pico/Pico/arm/lib/libpico.a(time.o)
 .text.repeating_timer_callback
                0x00000000       0x40 /home/pi/github/inferno-pico/Pico/arm/lib/libpico.a(time.o)
 .text.alarm_pool_dump_key
                0x00000000       0x70 /home/pi/github/inferno-pico/Pico/arm/lib/libpico.a(time.o)
 .text.alarm_pool_create
                0x00000000       0x40 /home/pi/github/inferno-pico/Pico/arm/lib/libpico.a(time.o)
 .text.alarm_pool_destroy
                0x00000000       0x78 /home/pi/github/inferno-pico/Pico/arm/lib/libpico.a(time.o)
 .text.alarm_pool_cancel_alarm
                0x00000000       0xec /home/pi/github/inferno-pico/Pico/arm/lib/libpico.a(time.o)
 .text.alarm_pool_hardware_alarm_num
                0x00000000        0x4 /home/pi/github/inferno-pico/Pico/arm/lib/libpico.a(time.o)
 .text.alarm_pool_add_repeating_timer_us
                0x00000000       0x9c /home/pi/github/inferno-pico/Pico/arm/lib/libpico.a(time.o)
 .text.cancel_repeating_timer
                0x00000000       0x1a /home/pi/github/inferno-pico/Pico/arm/lib/libpico.a(time.o)
 .text.alarm_pool_dump
                0x00000000       0x34 /home/pi/github/inferno-pico/Pico/arm/lib/libpico.a(time.o)
 .text.best_effort_wfe_or_timeout
                0x00000000       0x80 /home/pi/github/inferno-pico/Pico/arm/lib/libpico.a(time.o)
 .rodata.__func__.5396
                0x00000000       0x13 /home/pi/github/inferno-pico/Pico/arm/lib/libpico.a(time.o)
 .rodata.__func__.5419
                0x00000000       0x18 /home/pi/github/inferno-pico/Pico/arm/lib/libpico.a(time.o)
 .rodata.__func__.5435
                0x00000000       0x19 /home/pi/github/inferno-pico/Pico/arm/lib/libpico.a(time.o)
 .rodata.alarm_pool_cancel_alarm.str1.4
                0x00000000       0x27 /home/pi/github/inferno-pico/Pico/arm/lib/libpico.a(time.o)
 .rodata.alarm_pool_destroy.str1.4
                0x00000000       0x30 /home/pi/github/inferno-pico/Pico/arm/lib/libpico.a(time.o)
 .rodata.at_the_end_of_time
                0x00000000        0x8 /home/pi/github/inferno-pico/Pico/arm/lib/libpico.a(time.o)
 .rodata.nil_time
                0x00000000        0x8 /home/pi/github/inferno-pico/Pico/arm/lib/libpico.a(time.o)
 .text          0x00000000        0x0 /home/pi/github/inferno-pico/Pico/arm/lib/libpico.a(timer.o)
 .data          0x00000000        0x0 /home/pi/github/inferno-pico/Pico/arm/lib/libpico.a(timer.o)
 .bss           0x00000000        0x0 /home/pi/github/inferno-pico/Pico/arm/lib/libpico.a(timer.o)
 .text.hardware_alarm_unclaim
                0x00000000       0x10 /home/pi/github/inferno-pico/Pico/arm/lib/libpico.a(timer.o)
 .text.hardware_alarm_is_claimed
                0x00000000       0x10 /home/pi/github/inferno-pico/Pico/arm/lib/libpico.a(timer.o)
 .text.busy_wait_us
                0x00000000       0x48 /home/pi/github/inferno-pico/Pico/arm/lib/libpico.a(timer.o)
 .text.busy_wait_us_32
                0x00000000       0x24 /home/pi/github/inferno-pico/Pico/arm/lib/libpico.a(timer.o)
 .text.busy_wait_ms
                0x00000000       0x30 /home/pi/github/inferno-pico/Pico/arm/lib/libpico.a(timer.o)
 .rodata.__func__.4173
                0x00000000       0x15 /home/pi/github/inferno-pico/Pico/arm/lib/libpico.a(timer.o)
 .rodata.busy_wait_us.str1.4
                0x00000000       0x46 /home/pi/github/inferno-pico/Pico/arm/lib/libpico.a(timer.o)
 .text          0x00000000        0x0 /home/pi/github/inferno-pico/Pico/arm/lib/libpico.a(uart.o)
 .data          0x00000000        0x0 /home/pi/github/inferno-pico/Pico/arm/lib/libpico.a(uart.o)
 .bss           0x00000000        0x0 /home/pi/github/inferno-pico/Pico/arm/lib/libpico.a(uart.o)
 .text.uart_deinit
                0x00000000       0x20 /home/pi/github/inferno-pico/Pico/arm/lib/libpico.a(uart.o)
 .text.uart_is_readable_within_us
                0x00000000       0x20 /home/pi/github/inferno-pico/Pico/arm/lib/libpico.a(uart.o)
 .text          0x00000000        0x0 /home/pi/github/inferno-pico/Pico/arm/lib/libpico.a(unique_id.o)
 .data          0x00000000        0x0 /home/pi/github/inferno-pico/Pico/arm/lib/libpico.a(unique_id.o)
 .bss           0x00000000        0x0 /home/pi/github/inferno-pico/Pico/arm/lib/libpico.a(unique_id.o)
 .text.pico_get_unique_board_id_string
                0x00000000       0x60 /home/pi/github/inferno-pico/Pico/arm/lib/libpico.a(unique_id.o)
 .rodata.__func__.4247
                0x00000000       0x20 /home/pi/github/inferno-pico/Pico/arm/lib/libpico.a(unique_id.o)
 .rodata.pico_get_unique_board_id_string.str1.4
                0x00000000       0x14 /home/pi/github/inferno-pico/Pico/arm/lib/libpico.a(unique_id.o)
 .text          0x00000000        0x0 /home/pi/github/inferno-pico/Pico/arm/lib/libpico.a(watchdog.o)
 .data          0x00000000        0x0 /home/pi/github/inferno-pico/Pico/arm/lib/libpico.a(watchdog.o)
 .bss           0x00000000        0x0 /home/pi/github/inferno-pico/Pico/arm/lib/libpico.a(watchdog.o)
 .text.watchdog_update
                0x00000000       0x14 /home/pi/github/inferno-pico/Pico/arm/lib/libpico.a(watchdog.o)
 .text.watchdog_get_count
                0x00000000       0x10 /home/pi/github/inferno-pico/Pico/arm/lib/libpico.a(watchdog.o)
 .text._watchdog_enable
                0x00000000       0x74 /home/pi/github/inferno-pico/Pico/arm/lib/libpico.a(watchdog.o)
 .text.watchdog_enable
                0x00000000       0x18 /home/pi/github/inferno-pico/Pico/arm/lib/libpico.a(watchdog.o)
 .text.watchdog_reboot
                0x00000000       0x44 /home/pi/github/inferno-pico/Pico/arm/lib/libpico.a(watchdog.o)
 .text.watchdog_caused_reboot
                0x00000000       0x10 /home/pi/github/inferno-pico/Pico/arm/lib/libpico.a(watchdog.o)
 .text.watchdog_enable_caused_reboot
                0x00000000       0x28 /home/pi/github/inferno-pico/Pico/arm/lib/libpico.a(watchdog.o)
 .bss.load_value
                0x00000000        0x4 /home/pi/github/inferno-pico/Pico/arm/lib/libpico.a(watchdog.o)
 .text          0x00000000        0x0 /home/pi/github/inferno-pico/Pico/arm/lib/libpico.a(xosc.o)
 .data          0x00000000        0x0 /home/pi/github/inferno-pico/Pico/arm/lib/libpico.a(xosc.o)
 .bss           0x00000000        0x0 /home/pi/github/inferno-pico/Pico/arm/lib/libpico.a(xosc.o)
 .text.xosc_disable
                0x00000000       0x24 /home/pi/github/inferno-pico/Pico/arm/lib/libpico.a(xosc.o)
 .text.xosc_dormant
                0x00000000       0x18 /home/pi/github/inferno-pico/Pico/arm/lib/libpico.a(xosc.o)
 .text          0x00000000        0x0 /home/pi/github/inferno-pico/Pico/arm/lib/libpico.a(pico_int64_ops_aeabi.o)
 .data          0x00000000        0x0 /home/pi/github/inferno-pico/Pico/arm/lib/libpico.a(pico_int64_ops_aeabi.o)
 .bss           0x00000000        0x0 /home/pi/github/inferno-pico/Pico/arm/lib/libpico.a(pico_int64_ops_aeabi.o)
 .text          0x00000000        0x0 /home/pi/github/inferno-pico/Pico/arm/lib/libpico.a(bootrom.o)
 .data          0x00000000        0x0 /home/pi/github/inferno-pico/Pico/arm/lib/libpico.a(bootrom.o)
 .bss           0x00000000        0x0 /home/pi/github/inferno-pico/Pico/arm/lib/libpico.a(bootrom.o)
 .text.rom_data_lookup
                0x00000000       0x10 /home/pi/github/inferno-pico/Pico/arm/lib/libpico.a(bootrom.o)
 .text          0x00000000        0x0 /home/pi/github/inferno-pico/Pico/arm/lib/libpico.a(claim.o)
 .data          0x00000000        0x0 /home/pi/github/inferno-pico/Pico/arm/lib/libpico.a(claim.o)
 .bss           0x00000000        0x0 /home/pi/github/inferno-pico/Pico/arm/lib/libpico.a(claim.o)
 .text.hw_is_claimed
                0x00000000       0x16 /home/pi/github/inferno-pico/Pico/arm/lib/libpico.a(claim.o)
 .text.hw_claim_unused_from_range
                0x00000000       0x50 /home/pi/github/inferno-pico/Pico/arm/lib/libpico.a(claim.o)
 .text.hw_claim_clear
                0x00000000       0x40 /home/pi/github/inferno-pico/Pico/arm/lib/libpico.a(claim.o)
 .rodata.__func__.4381
                0x00000000        0xf /home/pi/github/inferno-pico/Pico/arm/lib/libpico.a(claim.o)
 .rodata.hw_claim_clear.str1.4
                0x00000000       0x28 /home/pi/github/inferno-pico/Pico/arm/lib/libpico.a(claim.o)
 .text          0x00000000        0x0 /home/pi/github/inferno-pico/Pico/arm/lib/libpico.a(flash.o)
 .data          0x00000000        0x0 /home/pi/github/inferno-pico/Pico/arm/lib/libpico.a(flash.o)
 .bss           0x00000000        0x0 /home/pi/github/inferno-pico/Pico/arm/lib/libpico.a(flash.o)
 .time_critical.flash_range_erase
                0x00000000       0xb4 /home/pi/github/inferno-pico/Pico/arm/lib/libpico.a(flash.o)
 .time_critical.flash_range_program
                0x00000000       0xb4 /home/pi/github/inferno-pico/Pico/arm/lib/libpico.a(flash.o)
 .rodata.__func__.4394
                0x00000000       0x12 /home/pi/github/inferno-pico/Pico/arm/lib/libpico.a(flash.o)
 .rodata.__func__.4404
                0x00000000       0x14 /home/pi/github/inferno-pico/Pico/arm/lib/libpico.a(flash.o)
 .text          0x00000000        0x0 /home/pi/github/inferno-pico/Pico/arm/lib/libpico.a(lock_core.o)
 .data          0x00000000        0x0 /home/pi/github/inferno-pico/Pico/arm/lib/libpico.a(lock_core.o)
 .bss           0x00000000        0x0 /home/pi/github/inferno-pico/Pico/arm/lib/libpico.a(lock_core.o)
 .text          0x00000000        0x0 /home/pi/github/inferno-pico/Pico/arm/lib/libpico.a(mutex.o)
 .data          0x00000000        0x0 /home/pi/github/inferno-pico/Pico/arm/lib/libpico.a(mutex.o)
 .bss           0x00000000        0x0 /home/pi/github/inferno-pico/Pico/arm/lib/libpico.a(mutex.o)
 .time_critical.recursive_mutex_enter_blocking
                0x00000000       0x70 /home/pi/github/inferno-pico/Pico/arm/lib/libpico.a(mutex.o)
 .time_critical.recursive_mutex_try_enter
                0x00000000       0x70 /home/pi/github/inferno-pico/Pico/arm/lib/libpico.a(mutex.o)
 .time_critical.mutex_enter_block_until
                0x00000000       0x7c /home/pi/github/inferno-pico/Pico/arm/lib/libpico.a(mutex.o)
 .time_critical.mutex_enter_timeout_ms
                0x00000000       0x6c /home/pi/github/inferno-pico/Pico/arm/lib/libpico.a(mutex.o)
 .time_critical.mutex_enter_timeout_us
                0x00000000       0x5c /home/pi/github/inferno-pico/Pico/arm/lib/libpico.a(mutex.o)
 .time_critical.recursive_mutex_enter_block_until
                0x00000000       0x9c /home/pi/github/inferno-pico/Pico/arm/lib/libpico.a(mutex.o)
 .time_critical.recursive_mutex_enter_timeout_ms
                0x00000000       0x6c /home/pi/github/inferno-pico/Pico/arm/lib/libpico.a(mutex.o)
 .time_critical.recursive_mutex_enter_timeout_us
                0x00000000       0x5c /home/pi/github/inferno-pico/Pico/arm/lib/libpico.a(mutex.o)
 .time_critical.recursive_mutex_exit
                0x00000000       0x7c /home/pi/github/inferno-pico/Pico/arm/lib/libpico.a(mutex.o)
 .rodata.__func__.4173
                0x00000000       0x15 /home/pi/github/inferno-pico/Pico/arm/lib/libpico.a(mutex.o)
 .rodata.__func__.4604
                0x00000000       0x1f /home/pi/github/inferno-pico/Pico/arm/lib/libpico.a(mutex.o)
 .rodata.__func__.4620
                0x00000000       0x1a /home/pi/github/inferno-pico/Pico/arm/lib/libpico.a(mutex.o)
 .rodata.__func__.4641
                0x00000000       0x18 /home/pi/github/inferno-pico/Pico/arm/lib/libpico.a(mutex.o)
 .rodata.__func__.4650
                0x00000000       0x22 /home/pi/github/inferno-pico/Pico/arm/lib/libpico.a(mutex.o)
 .rodata.__func__.4665
                0x00000000       0x15 /home/pi/github/inferno-pico/Pico/arm/lib/libpico.a(mutex.o)
 .text          0x00000000        0x0 /home/pi/github/inferno-pico/Pico/arm/lib/libpico.a(pheap.o)
 .data          0x00000000        0x0 /home/pi/github/inferno-pico/Pico/arm/lib/libpico.a(pheap.o)
 .bss           0x00000000        0x0 /home/pi/github/inferno-pico/Pico/arm/lib/libpico.a(pheap.o)
 .text.ph_dump_node
                0x00000000       0xa4 /home/pi/github/inferno-pico/Pico/arm/lib/libpico.a(pheap.o)
 .text.ph_create
                0x00000000       0x2c /home/pi/github/inferno-pico/Pico/arm/lib/libpico.a(pheap.o)
 .text.ph_destroy
                0x00000000       0x12 /home/pi/github/inferno-pico/Pico/arm/lib/libpico.a(pheap.o)
 .text.ph_dump  0x00000000       0x24 /home/pi/github/inferno-pico/Pico/arm/lib/libpico.a(pheap.o)
 .rodata.ph_dump.str1.4
                0x00000000        0xf /home/pi/github/inferno-pico/Pico/arm/lib/libpico.a(pheap.o)
 .rodata.ph_dump_node.str1.4
                0x00000000       0x15 /home/pi/github/inferno-pico/Pico/arm/lib/libpico.a(pheap.o)
 .text          0x00000000        0x0 /home/pi/github/inferno-pico/Pico/arm/lib/libpico.a(printf.o)
 .data          0x00000000        0x0 /home/pi/github/inferno-pico/Pico/arm/lib/libpico.a(printf.o)
 .bss           0x00000000        0x0 /home/pi/github/inferno-pico/Pico/arm/lib/libpico.a(printf.o)
 .text._out_buffer
                0x00000000        0x8 /home/pi/github/inferno-pico/Pico/arm/lib/libpico.a(printf.o)
 .text.__wrap_sprintf
                0x00000000       0x28 /home/pi/github/inferno-pico/Pico/arm/lib/libpico.a(printf.o)
 .text.__wrap_snprintf
                0x00000000       0x28 /home/pi/github/inferno-pico/Pico/arm/lib/libpico.a(printf.o)
 .text.__wrap_vsnprintf
                0x00000000       0x1c /home/pi/github/inferno-pico/Pico/arm/lib/libpico.a(printf.o)
 .text          0x00000000        0x0 /tmp/cccGXpSV.o
 .data          0x00000000        0x0 /tmp/cccGXpSV.o
 .bss           0x00000000        0x0 /tmp/cccGXpSV.o
 .data          0x00000000        0x0 /usr/lib/gcc/arm-none-eabi/7.3.1/thumb/v6-m/libgcc.a(_dvmd_tls.o)
 .bss           0x00000000        0x0 /usr/lib/gcc/arm-none-eabi/7.3.1/thumb/v6-m/libgcc.a(_dvmd_tls.o)
 .text          0x00000000       0x10 /usr/lib/gcc/arm-none-eabi/7.3.1/../../../arm-none-eabi/lib/thumb/v6-m/libg.a(lib_a-atexit.o)
 .data          0x00000000        0x0 /usr/lib/gcc/arm-none-eabi/7.3.1/../../../arm-none-eabi/lib/thumb/v6-m/libg.a(lib_a-atexit.o)
 .bss           0x00000000        0x0 /usr/lib/gcc/arm-none-eabi/7.3.1/../../../arm-none-eabi/lib/thumb/v6-m/libg.a(lib_a-atexit.o)
 .debug_info    0x00000000      0x90c /usr/lib/gcc/arm-none-eabi/7.3.1/../../../arm-none-eabi/lib/thumb/v6-m/libg.a(lib_a-atexit.o)
 .debug_abbrev  0x00000000      0x1fe /usr/lib/gcc/arm-none-eabi/7.3.1/../../../arm-none-eabi/lib/thumb/v6-m/libg.a(lib_a-atexit.o)
 .debug_loc     0x00000000       0x2c /usr/lib/gcc/arm-none-eabi/7.3.1/../../../arm-none-eabi/lib/thumb/v6-m/libg.a(lib_a-atexit.o)
 .debug_aranges
                0x00000000       0x20 /usr/lib/gcc/arm-none-eabi/7.3.1/../../../arm-none-eabi/lib/thumb/v6-m/libg.a(lib_a-atexit.o)
 .debug_line    0x00000000      0x129 /usr/lib/gcc/arm-none-eabi/7.3.1/../../../arm-none-eabi/lib/thumb/v6-m/libg.a(lib_a-atexit.o)
 .debug_str     0x00000000      0x5cf /usr/lib/gcc/arm-none-eabi/7.3.1/../../../arm-none-eabi/lib/thumb/v6-m/libg.a(lib_a-atexit.o)
 .comment       0x00000000       0x58 /usr/lib/gcc/arm-none-eabi/7.3.1/../../../arm-none-eabi/lib/thumb/v6-m/libg.a(lib_a-atexit.o)
 .debug_frame   0x00000000       0x28 /usr/lib/gcc/arm-none-eabi/7.3.1/../../../arm-none-eabi/lib/thumb/v6-m/libg.a(lib_a-atexit.o)
 .ARM.attributes
                0x00000000       0x2c /usr/lib/gcc/arm-none-eabi/7.3.1/../../../arm-none-eabi/lib/thumb/v6-m/libg.a(lib_a-atexit.o)
 .text          0x00000000       0x34 /usr/lib/gcc/arm-none-eabi/7.3.1/../../../arm-none-eabi/lib/thumb/v6-m/libg.a(lib_a-fini.o)
 .data          0x00000000        0x0 /usr/lib/gcc/arm-none-eabi/7.3.1/../../../arm-none-eabi/lib/thumb/v6-m/libg.a(lib_a-fini.o)
 .bss           0x00000000        0x0 /usr/lib/gcc/arm-none-eabi/7.3.1/../../../arm-none-eabi/lib/thumb/v6-m/libg.a(lib_a-fini.o)
 .debug_info    0x00000000       0xf3 /usr/lib/gcc/arm-none-eabi/7.3.1/../../../arm-none-eabi/lib/thumb/v6-m/libg.a(lib_a-fini.o)
 .debug_abbrev  0x00000000       0xba /usr/lib/gcc/arm-none-eabi/7.3.1/../../../arm-none-eabi/lib/thumb/v6-m/libg.a(lib_a-fini.o)
 .debug_loc     0x00000000       0x3e /usr/lib/gcc/arm-none-eabi/7.3.1/../../../arm-none-eabi/lib/thumb/v6-m/libg.a(lib_a-fini.o)
 .debug_aranges
                0x00000000       0x20 /usr/lib/gcc/arm-none-eabi/7.3.1/../../../arm-none-eabi/lib/thumb/v6-m/libg.a(lib_a-fini.o)
 .debug_line    0x00000000       0x9f /usr/lib/gcc/arm-none-eabi/7.3.1/../../../arm-none-eabi/lib/thumb/v6-m/libg.a(lib_a-fini.o)
 .debug_str     0x00000000      0x1de /usr/lib/gcc/arm-none-eabi/7.3.1/../../../arm-none-eabi/lib/thumb/v6-m/libg.a(lib_a-fini.o)
 .comment       0x00000000       0x58 /usr/lib/gcc/arm-none-eabi/7.3.1/../../../arm-none-eabi/lib/thumb/v6-m/libg.a(lib_a-fini.o)
 .debug_frame   0x00000000       0x2c /usr/lib/gcc/arm-none-eabi/7.3.1/../../../arm-none-eabi/lib/thumb/v6-m/libg.a(lib_a-fini.o)
 .ARM.attributes
                0x00000000       0x2c /usr/lib/gcc/arm-none-eabi/7.3.1/../../../arm-none-eabi/lib/thumb/v6-m/libg.a(lib_a-fini.o)
 .text          0x00000000       0x48 /usr/lib/gcc/arm-none-eabi/7.3.1/../../../arm-none-eabi/lib/thumb/v6-m/libg.a(lib_a-init.o)
 .data          0x00000000        0x0 /usr/lib/gcc/arm-none-eabi/7.3.1/../../../arm-none-eabi/lib/thumb/v6-m/libg.a(lib_a-init.o)
 .bss           0x00000000        0x0 /usr/lib/gcc/arm-none-eabi/7.3.1/../../../arm-none-eabi/lib/thumb/v6-m/libg.a(lib_a-init.o)
 .debug_info    0x00000000      0x109 /usr/lib/gcc/arm-none-eabi/7.3.1/../../../arm-none-eabi/lib/thumb/v6-m/libg.a(lib_a-init.o)
 .debug_abbrev  0x00000000       0xba /usr/lib/gcc/arm-none-eabi/7.3.1/../../../arm-none-eabi/lib/thumb/v6-m/libg.a(lib_a-init.o)
 .debug_loc     0x00000000       0x84 /usr/lib/gcc/arm-none-eabi/7.3.1/../../../arm-none-eabi/lib/thumb/v6-m/libg.a(lib_a-init.o)
 .debug_aranges
                0x00000000       0x20 /usr/lib/gcc/arm-none-eabi/7.3.1/../../../arm-none-eabi/lib/thumb/v6-m/libg.a(lib_a-init.o)
 .debug_line    0x00000000       0xbf /usr/lib/gcc/arm-none-eabi/7.3.1/../../../arm-none-eabi/lib/thumb/v6-m/libg.a(lib_a-init.o)
 .debug_str     0x00000000      0x208 /usr/lib/gcc/arm-none-eabi/7.3.1/../../../arm-none-eabi/lib/thumb/v6-m/libg.a(lib_a-init.o)
 .comment       0x00000000       0x58 /usr/lib/gcc/arm-none-eabi/7.3.1/../../../arm-none-eabi/lib/thumb/v6-m/libg.a(lib_a-init.o)
 .debug_frame   0x00000000       0x2c /usr/lib/gcc/arm-none-eabi/7.3.1/../../../arm-none-eabi/lib/thumb/v6-m/libg.a(lib_a-init.o)
 .ARM.attributes
                0x00000000       0x2c /usr/lib/gcc/arm-none-eabi/7.3.1/../../../arm-none-eabi/lib/thumb/v6-m/libg.a(lib_a-init.o)
 .data          0x00000000        0x0 /usr/lib/gcc/arm-none-eabi/7.3.1/../../../arm-none-eabi/lib/thumb/v6-m/libg.a(lib_a-memmove.o)
 .bss           0x00000000        0x0 /usr/lib/gcc/arm-none-eabi/7.3.1/../../../arm-none-eabi/lib/thumb/v6-m/libg.a(lib_a-memmove.o)
 .data          0x00000000        0x0 /usr/lib/gcc/arm-none-eabi/7.3.1/../../../arm-none-eabi/lib/thumb/v6-m/libg.a(lib_a-strchr.o)
 .bss           0x00000000        0x0 /usr/lib/gcc/arm-none-eabi/7.3.1/../../../arm-none-eabi/lib/thumb/v6-m/libg.a(lib_a-strchr.o)
 .text          0x00000000       0x88 /usr/lib/gcc/arm-none-eabi/7.3.1/../../../arm-none-eabi/lib/thumb/v6-m/libg.a(lib_a-__atexit.o)
 .data          0x00000000        0x0 /usr/lib/gcc/arm-none-eabi/7.3.1/../../../arm-none-eabi/lib/thumb/v6-m/libg.a(lib_a-__atexit.o)
 .bss           0x00000000        0x0 /usr/lib/gcc/arm-none-eabi/7.3.1/../../../arm-none-eabi/lib/thumb/v6-m/libg.a(lib_a-__atexit.o)
 .debug_info    0x00000000      0x937 /usr/lib/gcc/arm-none-eabi/7.3.1/../../../arm-none-eabi/lib/thumb/v6-m/libg.a(lib_a-__atexit.o)
 .debug_abbrev  0x00000000      0x212 /usr/lib/gcc/arm-none-eabi/7.3.1/../../../arm-none-eabi/lib/thumb/v6-m/libg.a(lib_a-__atexit.o)
 .debug_loc     0x00000000      0x138 /usr/lib/gcc/arm-none-eabi/7.3.1/../../../arm-none-eabi/lib/thumb/v6-m/libg.a(lib_a-__atexit.o)
 .debug_aranges
                0x00000000       0x20 /usr/lib/gcc/arm-none-eabi/7.3.1/../../../arm-none-eabi/lib/thumb/v6-m/libg.a(lib_a-__atexit.o)
 .debug_line    0x00000000      0x148 /usr/lib/gcc/arm-none-eabi/7.3.1/../../../arm-none-eabi/lib/thumb/v6-m/libg.a(lib_a-__atexit.o)
 .debug_str     0x00000000      0x5ed /usr/lib/gcc/arm-none-eabi/7.3.1/../../../arm-none-eabi/lib/thumb/v6-m/libg.a(lib_a-__atexit.o)
 .comment       0x00000000       0x58 /usr/lib/gcc/arm-none-eabi/7.3.1/../../../arm-none-eabi/lib/thumb/v6-m/libg.a(lib_a-__atexit.o)
 .debug_frame   0x00000000       0x38 /usr/lib/gcc/arm-none-eabi/7.3.1/../../../arm-none-eabi/lib/thumb/v6-m/libg.a(lib_a-__atexit.o)
 .ARM.attributes
                0x00000000       0x2c /usr/lib/gcc/arm-none-eabi/7.3.1/../../../arm-none-eabi/lib/thumb/v6-m/libg.a(lib_a-__atexit.o)
 .text          0x00000000        0x0 /usr/lib/gcc/arm-none-eabi/7.3.1/../../../arm-none-eabi/lib/thumb/v6-m/libg.a(lib_a-impure.o)
 .data          0x00000000      0x430 /usr/lib/gcc/arm-none-eabi/7.3.1/../../../arm-none-eabi/lib/thumb/v6-m/libg.a(lib_a-impure.o)
 .bss           0x00000000        0x0 /usr/lib/gcc/arm-none-eabi/7.3.1/../../../arm-none-eabi/lib/thumb/v6-m/libg.a(lib_a-impure.o)
 .rodata        0x00000000        0x4 /usr/lib/gcc/arm-none-eabi/7.3.1/../../../arm-none-eabi/lib/thumb/v6-m/libg.a(lib_a-impure.o)
 .debug_info    0x00000000      0x8a9 /usr/lib/gcc/arm-none-eabi/7.3.1/../../../arm-none-eabi/lib/thumb/v6-m/libg.a(lib_a-impure.o)
 .debug_abbrev  0x00000000      0x192 /usr/lib/gcc/arm-none-eabi/7.3.1/../../../arm-none-eabi/lib/thumb/v6-m/libg.a(lib_a-impure.o)
 .debug_aranges
                0x00000000       0x18 /usr/lib/gcc/arm-none-eabi/7.3.1/../../../arm-none-eabi/lib/thumb/v6-m/libg.a(lib_a-impure.o)
 .debug_line    0x00000000       0xd4 /usr/lib/gcc/arm-none-eabi/7.3.1/../../../arm-none-eabi/lib/thumb/v6-m/libg.a(lib_a-impure.o)
 .debug_str     0x00000000      0x584 /usr/lib/gcc/arm-none-eabi/7.3.1/../../../arm-none-eabi/lib/thumb/v6-m/libg.a(lib_a-impure.o)
 .comment       0x00000000       0x58 /usr/lib/gcc/arm-none-eabi/7.3.1/../../../arm-none-eabi/lib/thumb/v6-m/libg.a(lib_a-impure.o)
 .ARM.attributes
                0x00000000       0x2c /usr/lib/gcc/arm-none-eabi/7.3.1/../../../arm-none-eabi/lib/thumb/v6-m/libg.a(lib_a-impure.o)
 .text          0x00000000        0x0 /usr/lib/gcc/arm-none-eabi/7.3.1/thumb/v6-m/crtend.o
 .data          0x00000000        0x0 /usr/lib/gcc/arm-none-eabi/7.3.1/thumb/v6-m/crtend.o
 .bss           0x00000000        0x0 /usr/lib/gcc/arm-none-eabi/7.3.1/thumb/v6-m/crtend.o
 .eh_frame      0x00000000        0x4 /usr/lib/gcc/arm-none-eabi/7.3.1/thumb/v6-m/crtend.o
 .text          0x00000000        0x0 /usr/lib/gcc/arm-none-eabi/7.3.1/thumb/v6-m/crtn.o
 .data          0x00000000        0x0 /usr/lib/gcc/arm-none-eabi/7.3.1/thumb/v6-m/crtn.o
 .bss           0x00000000        0x0 /usr/lib/gcc/arm-none-eabi/7.3.1/thumb/v6-m/crtn.o
 .init          0x00000000        0x8 /usr/lib/gcc/arm-none-eabi/7.3.1/thumb/v6-m/crtn.o
 .fini          0x00000000        0x8 /usr/lib/gcc/arm-none-eabi/7.3.1/thumb/v6-m/crtn.o
 .ARM.attributes
                0x00000000       0x1e /usr/lib/gcc/arm-none-eabi/7.3.1/thumb/v6-m/crtn.o

Memory Configuration

Name             Origin             Length             Attributes
FLASH            0x10000000         0x00200000         xr
RAM              0x20000000         0x00040000         xrw
SCRATCH_X        0x20040000         0x00001000         xrw
SCRATCH_Y        0x20041000         0x00001000         xrw
*default*        0x00000000         0xffffffff

Linker script and memory map

LOAD /usr/lib/gcc/arm-none-eabi/7.3.1/thumb/v6-m/crti.o
LOAD /usr/lib/gcc/arm-none-eabi/7.3.1/thumb/v6-m/crtbegin.o
LOAD /usr/lib/gcc/arm-none-eabi/7.3.1/../../../arm-none-eabi/lib/thumb/v6-m/crt0.o

.flash_begin    0x10000000        0x0
                0x10000000                __flash_binary_start = .

.boot2          0x10000000      0x100
                0x10000000                __boot2_start__ = .
 *(.boot2)
 .boot2         0x10000000      0x100 /tmp/cccGXpSV.o
                0x10000100                __boot2_end__ = .
                0x00000001                ASSERT (((__boot2_end__ - __boot2_start__) == 0x100), ERROR: Pico second stage bootloader must be 256 bytes in size)

.text           0x10000100    0x2ea00
                0x10000100                __logical_binary_start = .
 *(.vectors)
 .vectors       0x10000100       0xd4 /home/pi/github/inferno-pico/Pico/arm/lib/libpico.a(crt0.o)
                0x10000100                __vectors
                0x10000100                __VECTOR_TABLE
                0x100001c0                isr_invalid
                0x100001c0                __default_isrs_start
                0x100001c2                isr_nmi
                0x100001c4                isr_hardfault
                0x100001c6                isr_svcall
                0x100001c8                isr_pendsv
                0x100001ca                isr_systick
                0x100001cc                isr_irq30
                0x100001cc                __unhandled_user_irq
                0x100001cc                isr_irq13
                0x100001cc                isr_irq27
                0x100001cc                isr_irq31
                0x100001cc                isr_irq5
                0x100001cc                isr_irq11
                0x100001cc                isr_irq23
                0x100001cc                isr_irq18
                0x100001cc                isr_irq28
                0x100001cc                isr_irq19
                0x100001cc                isr_irq0
                0x100001cc                isr_irq6
                0x100001cc                isr_irq22
                0x100001cc                isr_irq17
                0x100001cc                isr_irq14
                0x100001cc                isr_irq2
                0x100001cc                isr_irq10
                0x100001cc                isr_irq8
                0x100001cc                isr_irq24
                0x100001cc                isr_irq1
                0x100001cc                isr_irq7
                0x100001cc                isr_irq21
                0x100001cc                isr_irq20
                0x100001cc                isr_irq15
                0x100001cc                isr_irq25
                0x100001cc                isr_irq4
                0x100001cc                isr_irq16
                0x100001cc                isr_irq29
                0x100001cc                isr_irq26
                0x100001cc                __default_isrs_end
                0x100001cc                isr_irq3
                0x100001cc                isr_irq12
                0x100001cc                isr_irq9
                0x100001d2                unhandled_user_irq_num_in_r0
 *(.binary_info_header)
 .binary_info_header
                0x100001d4       0x14 /home/pi/github/inferno-pico/Pico/arm/lib/libpico.a(crt0.o)
                0x100001e8                __binary_info_header_end = .
 *(.reset)
 .reset         0x100001e8       0xa8 /home/pi/github/inferno-pico/Pico/arm/lib/libpico.a(crt0.o)
                0x100001e8                _entry_point
                0x10000266                __get_current_exception
 *(.init)
 .init          0x10000290        0x4 /usr/lib/gcc/arm-none-eabi/7.3.1/thumb/v6-m/crti.o
                0x10000290                _init
 *(EXCLUDE_FILE(*libm.a: *libc.a:*lib_a-mem*.o *libgcc.a:) .text*)
 .text          0x10000294       0x98 /usr/lib/gcc/arm-none-eabi/7.3.1/thumb/v6-m/crtbegin.o
 .text.init0    0x1000032c      0x128 main.o
                0x1000032c                init0
 .text.confinit
                0x10000454       0x74 main.o
                0x10000454                confinit
 .text.poolsizeinit
                0x100004c8       0x70 main.o
                0x100004c8                poolsizeinit
 .text.userinit
                0x10000538       0x70 main.o
                0x10000538                userinit
 .text.main     0x100005a8      0x188 main.o
                0x100005a8                main
 .text          0x10000730       0x38 armv6.o
                0x10000730                FPsave
                0x10000734                FPrestore
                0x10000736                setlabel
                0x10000742                gotolabel
                0x1000074e                getpc
                0x10000752                coherence
                0x1000075c                spllo
                0x10000760                idlehands
 .text.rootclose
                0x10000768        0x2 devroot.o
 *fill*         0x1000076a        0x2 
 .text.rootwrite
                0x1000076c       0x10 devroot.o
 .text.rootread
                0x1000077c       0x98 devroot.o
 .text.rootgen  0x10000814      0x154 devroot.o
 .text.rootopen
                0x10000968       0x28 devroot.o
 .text.rootstat
                0x10000990       0x2c devroot.o
 .text.rootwalk
                0x100009bc       0x34 devroot.o
 .text.rootattach
                0x100009f0       0x60 devroot.o
 .text.finddbgkey
                0x10000a50       0x2c devcons.o
 .text.dbgwork  0x10000a7c       0x10 devcons.o
 .text.qpanic   0x10000a8c       0x10 devcons.o
 .text.flushkbdline
                0x10000a9c       0x24 devcons.o
 .text.putstrn0
                0x10000ac0      0x15c devcons.o
 .text.consclose
                0x10000c1c       0xa4 devcons.o
 .text.consstat
                0x10000cc0       0x20 devcons.o
 .text.conswalk
                0x10000ce0       0x20 devcons.o
 .text.consattach
                0x10000d00        0xc devcons.o
 .text.rexit    0x10000d0c        0xa devcons.o
 *fill*         0x10000d16        0x2 
 .text.dbgproc  0x10000d18       0x30 devcons.o
 .text.printinit
                0x10000d48       0x34 devcons.o
                0x10000d48                printinit
 .text.iseve    0x10000d7c       0x24 devcons.o
                0x10000d7c                iseve
 .text.consopen
                0x10000da0      0x16c devcons.o
 .text.putstrn  0x10000f0c        0xa devcons.o
                0x10000f0c                putstrn
 .text.snprint  0x10000f16       0x1a devcons.o
                0x10000f16                snprint
 .text.sprint   0x10000f30       0x1c devcons.o
                0x10000f30                sprint
 .text.print    0x10000f4c       0x2a devcons.o
                0x10000f4c                print
 *fill*         0x10000f76        0x2 
 .text.fddump   0x10000f78       0x48 devcons.o
                0x10000f78                fddump
 .text.dbghelp  0x10000fc0       0x64 devcons.o
 .text.dbgtoggle
                0x10001024       0x34 devcons.o
 .text.iprint   0x10001058       0x60 devcons.o
                0x10001058                iprint
 .text._assert  0x100010b8       0x10 devcons.o
                0x100010b8                _assert
 .text.echo     0x100010c8       0x70 devcons.o
                0x100010c8                echo
 .text.isdbgkey
                0x10001138       0xb4 devcons.o
 .text.debugkey
                0x100011ec       0x74 devcons.o
                0x100011ec                debugkey
 .text.debuginit
                0x10001260       0x40 devcons.o
 .text.consinit
                0x100012a0       0x60 devcons.o
 .text.kbdputc  0x10001300       0xbc devcons.o
                0x10001300                kbdputc
 .text.conswrite
                0x100013bc      0x384 devcons.o
 .text.seconds  0x10001740       0x20 devcons.o
                0x10001740                seconds
 .text.mseconds
                0x10001760       0x30 devcons.o
                0x10001760                mseconds
 .text.readnum  0x10001790       0x4c devcons.o
                0x10001790                readnum
 .text.readstr  0x100017dc       0x2e devcons.o
                0x100017dc                readstr
 *fill*         0x1000180a        0x2 
 .text.consread
                0x1000180c      0x3e0 devcons.o
 .text.envremove
                0x10001bec       0x9c devenv.o
 .text.envclose
                0x10001c88       0x12 devenv.o
 *fill*         0x10001c9a        0x2 
 .text.envwrite
                0x10001c9c      0x100 devenv.o
 .text.envread  0x10001d9c       0xfc devenv.o
 .text.envgen   0x10001e98       0xe4 devenv.o
 .text.envopen  0x10001f7c       0xc0 devenv.o
 .text.envcreate
                0x1000203c      0x128 devenv.o
 .text.envstat  0x10002164       0x38 devenv.o
 .text.envwalk  0x1000219c       0x1c devenv.o
 .text.envattach
                0x100021b8       0x34 devenv.o
 .text.newegrp  0x100021ec        0xe devenv.o
                0x100021ec                newegrp
 .text.closeegrp
                0x100021fa       0x3a devenv.o
                0x100021fa                closeegrp
 .text.egrpcpy  0x10002234       0x7c devenv.o
                0x10002234                egrpcpy
 .text.ksetenv  0x100022b0       0xcc devenv.o
                0x100022b0                ksetenv
 .text.alloctag
                0x1000237c       0x50 devmnt.o
 .text.freetag  0x100023cc       0x1c devmnt.o
 .text.rpcattn  0x100023e8       0x22 devmnt.o
                0x100023e8                rpcattn
 *fill*         0x1000240a        0x2 
 .text.doread   0x1000240c       0x54 devmnt.o
 .text.mntreset
                0x10002460       0x2c devmnt.o
 .text.mntversion
                0x1000248c      0x3ec devmnt.o
                0x1000248c                mntversion
 .text.mntchan  0x10002878       0x3c devmnt.o
                0x10002878                mntchan
 .text.mntpntfree
                0x100028b4       0x40 devmnt.o
                0x100028b4                mntpntfree
 .text.mntrpcread
                0x100028f4      0x13c devmnt.o
                0x100028f4                mntrpcread
 .text.mntgate  0x10002a30       0x36 devmnt.o
                0x10002a30                mntgate
 *fill*         0x10002a66        0x2 
 .text.mountmux
                0x10002a68       0xc4 devmnt.o
                0x10002a68                mountmux
 .text.mntralloc
                0x10002b2c      0x104 devmnt.o
                0x10002b2c                mntralloc
 .text.mntflushalloc
                0x10002c30       0x26 devmnt.o
                0x10002c30                mntflushalloc
 *fill*         0x10002c56        0x2 
 .text.mntfree  0x10002c58       0x58 devmnt.o
                0x10002c58                mntfree
 .text.muxclose
                0x10002cb0       0x28 devmnt.o
                0x10002cb0                muxclose
 .text.mntqrm   0x10002cd8       0x32 devmnt.o
                0x10002cd8                mntqrm
 .text.mntflushfree
                0x10002d0a       0x3c devmnt.o
                0x10002d0a                mntflushfree
 *fill*         0x10002d46        0x2 
 .text.mountio  0x10002d48      0x198 devmnt.o
                0x10002d48                mountio
 .text.mountrpc
                0x10002ee0       0xd4 devmnt.o
                0x10002ee0                mountrpc
 .text.mntauth  0x10002fb4      0x120 devmnt.o
                0x10002fb4                mntauth
 .text.mntattach
                0x100030d4      0x134 devmnt.o
 .text.mntchk   0x10003208       0x64 devmnt.o
                0x10003208                mntchk
 .text.mntrdwr  0x1000326c      0x16c devmnt.o
                0x1000326c                mntrdwr
 .text.mntwrite
                0x100033d8       0x1c devmnt.o
 .text.mntwstat
                0x100033f4       0x80 devmnt.o
 .text.mntclunk
                0x10003474       0x68 devmnt.o
 .text.mntremove
                0x100034dc        0xa devmnt.o
 .text.mntclose
                0x100034e6        0xa devmnt.o
 .text.mntopencreate
                0x100034f0       0xdc devmnt.o
 .text.mntcreate
                0x100035cc       0x16 devmnt.o
 .text.mntopen  0x100035e2       0x16 devmnt.o
 .text.mntwalk  0x100035f8      0x1bc devmnt.o
 .text.mntdirfix
                0x100037b4       0x2c devmnt.o
                0x100037b4                mntdirfix
 .text.mntread  0x100037e0       0xdc devmnt.o
 .text.mntstat  0x100038bc       0xc0 devmnt.o
 .text.pipeinit
                0x1000397c       0x10 devpipe.o
 .text.freepipe
                0x1000398c       0x26 devpipe.o
 *fill*         0x100039b2        0x2 
 .text.pipewstat
                0x100039b4      0x13c devpipe.o
 .text.pipebwrite
                0x10003af0       0x90 devpipe.o
 .text.pipewrite
                0x10003b80       0x94 devpipe.o
 .text.pipebread
                0x10003c14       0x2a devpipe.o
 *fill*         0x10003c3e        0x2 
 .text.piperead
                0x10003c40       0x50 devpipe.o
 .text.pipegen  0x10003c90       0xd8 devpipe.o
 .text.pipeclose
                0x10003d68       0x92 devpipe.o
 *fill*         0x10003dfa        0x2 
 .text.pipeopen
                0x10003dfc       0xe8 devpipe.o
 .text.pipestat
                0x10003ee4      0x108 devpipe.o
 .text.pipewalk
                0x10003fec       0x6c devpipe.o
 .text.pipeattach
                0x10004058      0x104 devpipe.o
 .text.calldepth
                0x1000415c       0x10 devprog.o
 .text.int2flag
                0x1000416c       0x3e devprog.o
 .text.xecdone  0x100041aa        0x8 devprog.o
 .text.bdone    0x100041b2        0xa devprog.o
 .text.progqidwidth
                0x100041bc       0x18 devprog.o
 .text.progoffset
                0x100041d4       0x2e devprog.o
 .text.telldbg  0x10004202       0x18 devprog.o
 .text.dbgaddrun
                0x1000421a       0x28 devprog.o
 *fill*         0x10004242        0x2 
 .text.dbgblock
                0x10004244       0xc4 devprog.o
 .text.freebpts
                0x10004308       0x12 devprog.o
 *fill*         0x1000431a        0x2 
 .text.closedbgctl
                0x1000431c       0x4c devprog.o
 .text.dbgxec   0x10004368      0x25c devprog.o
                0x10004368                dbgxec
 .text.delbpt   0x100045c4       0x3c devprog.o
 .text.progwstat
                0x10004600       0xb8 devprog.o
 .text.dbgstep  0x100046b8      0x10c devprog.o
 .text.dbgstart
                0x100047c4       0x44 devprog.o
 .text.setbpt   0x10004808       0x4e devprog.o
 *fill*         0x10004856        0x2 
 .text.progwrite
                0x10004858      0x388 devprog.o
 .text.proggen  0x10004be0      0x218 devprog.o
 .text.progclose
                0x10004df8       0x9e devprog.o
 *fill*         0x10004e96        0x2 
 .text.progtime
                0x10004e98       0x50 devprog.o
 .text.progsize
                0x10004ee8       0x72 devprog.o
 .text.mntscan  0x10004f5a       0x82 devprog.o
 .text.progheap
                0x10004fdc      0x3c0 devprog.o
 .text.progopen
                0x1000539c      0x1dc devprog.o
 .text.progstat
                0x10005578       0x18 devprog.o
 .text.progwalk
                0x10005590       0x1c devprog.o
 .text.progattach
                0x100055ac        0xc devprog.o
 .text.progfdprint
                0x100055b8       0xa4 devprog.o
                0x100055b8                progfdprint
 .text.progfds  0x1000565c       0xbc devprog.o
 .text.pc2dispc
                0x10005718       0x66 devprog.o
                0x10005718                pc2dispc
 *fill*         0x1000577e        0x2 
 .text.progstack
                0x10005780      0x11c devprog.o
 .text.modstatus
                0x1000589c       0x8c devprog.o
                0x1000589c                modstatus
 .text.progread
                0x10005928      0x4f0 devprog.o
 .text.dbgexit  0x10005e18       0x60 devprog.o
                0x10005e18                dbgexit
 .text.srvdelete
                0x10005e78       0x2e devsrv.o
 .text.addwaiting
                0x10005ea6       0x12 devsrv.o
 .text.delwaiting
                0x10005eb8        0xe devsrv.o
 *fill*         0x10005ec6        0x2 
 .text.srvcanattach
                0x10005ec8       0x30 devsrv.o
 .text.srvretype
                0x10005ef8       0x1e devsrv.o
 *fill*         0x10005f16        0x2 
 .text.srvputdir
                0x10005f18       0x44 devsrv.o
 .text.srvchkref
                0x10005f5c       0x28 devsrv.o
 .text.srvwstat
                0x10005f84      0x120 devsrv.o
 .text.srvunblock
                0x100060a4       0x80 devsrv.o
 .text.srvclunk
                0x10006124       0xc8 devsrv.o
 .text.srvremove
                0x100061ec        0xa devsrv.o
 .text.srvclose
                0x100061f6        0xa devsrv.o
 .text.srvwrite
                0x10006200      0x23c devsrv.o
 .text.srvread  0x1000643c      0x250 devsrv.o
 .text.srvgen   0x1000668c       0xe4 devsrv.o
 .text.srvopen  0x10006770      0x10c devsrv.o
 .text.srvstat  0x1000687c       0x78 devsrv.o
 .text.srvwalk  0x100068f4       0xd8 devsrv.o
 .text.srvattach
                0x100069cc      0x164 devsrv.o
 .text.srvinit  0x10006b30       0x70 devsrv.o
 .text.srvcancelreqs
                0x10006ba0       0xa0 devsrv.o
 .text.srvfree  0x10006c40       0x2c devsrv.o
 .text.freewrchan
                0x10006c6c       0x3c devsrv.o
 .text.freerdchan
                0x10006ca8       0x3c devsrv.o
 .text.srvf2c   0x10006ce4      0x1d8 devsrv.o
                0x10006ce4                srvf2c
 .text.dupclose
                0x10006ebc        0x2 devdup.o
 *fill*         0x10006ebe        0x2 
 .text.dupwrite
                0x10006ec0       0x10 devdup.o
 .text.dupread  0x10006ed0       0xc4 devdup.o
 .text.dupgen   0x10006f94      0x114 devdup.o
 .text.dupopen  0x100070a8       0xc0 devdup.o
 .text.dupstat  0x10007168       0x18 devdup.o
 .text.dupwalk  0x10007180       0x1c devdup.o
 .text.dupattach
                0x1000719c        0xc devdup.o
 .text.linkproc
                0x100071a8       0x50 archpico.o
 .text.clockintr
                0x100071f8       0x16 archpico.o
                0x100071f8                clockintr
 .text.archinit
                0x1000720e        0xc archpico.o
                0x1000720e                archinit
 .text.archpicolink
                0x1000721a        0x2 archpico.o
                0x1000721a                archpicolink
 .text.kprocchild
                0x1000721c       0x28 archpico.o
                0x1000721c                kprocchild
 .text._tas     0x10007244        0xa archpico.o
                0x10007244                _tas
 *fill*         0x1000724e        0x2 
 .text.splhi    0x10007250       0x14 archpico.o
                0x10007250                splhi
 .text.splx     0x10007264       0x14 archpico.o
                0x10007264                splx
 .text.splxpc   0x10007278        0xc archpico.o
                0x10007278                splxpc
 .text.islo     0x10007284        0xa archpico.o
                0x10007284                islo
 .text.getcpuid
                0x1000728e       0x28 archpico.o
                0x1000728e                getcpuid
 *fill*         0x100072b6        0x2 
 .text.serputs  0x100072b8       0x10 archpico.o
                0x100072b8                serputs
 .text.clockinit
                0x100072c8        0x2 archpico.o
                0x100072c8                clockinit
 *fill*         0x100072ca        0x2 
 .text.timerset
                0x100072cc       0x70 archpico.o
                0x100072cc                timerset
 .text.clock_sys_freq
                0x1000733c        0xa archpico.o
                0x1000733c                clock_sys_freq
 *fill*         0x10007346        0x2 
 .text.machinit
                0x10007348       0x18 archpico.o
                0x10007348                machinit
 .text.fastticks
                0x10007360       0x16 archpico.o
                0x10007360                fastticks
 .text.reboot   0x10007376        0x2 archpico.o
                0x10007376                reboot
 .text.fpinit   0x10007378        0x2 archpico.o
                0x10007378                fpinit
 .text.clockcheck
                0x1000737a        0x2 archpico.o
                0x1000737a                clockcheck
 .text.segflush
                0x1000737c        0x6 archpico.o
                0x1000737c                segflush
 .text.genrandom
                0x10007382        0x2 archpico.o
                0x10007382                genrandom
 .text.rom_version
                0x10007384        0x6 archpico.o
                0x10007384                rom_version
 *fill*         0x1000738a        0x2 
 .text.setpanic
                0x1000738c       0x14 archpico.o
                0x1000738c                setpanic
 .text.inferno_panic
                0x100073a0       0x38 archpico.o
                0x100073a0                inferno_panic
 .text.halt     0x100073d8        0xc archpico.o
                0x100073d8                halt
 .text.checkalarms
                0x100073e4       0x70 alarm.o
                0x100073e4                checkalarms
 .text.poolmax  0x10007454       0x3c alloc.o
 .text.dumpvl   0x10007490       0x60 alloc.o
 .text.corrupted
                0x100074f0       0x3c alloc.o
 .text._auditmemloc
                0x1000752c      0x1c8 alloc.o
 .text._poolfault
                0x100076f4       0x34 alloc.o
 .text.memusehigh
                0x10007728       0x40 alloc.o
                0x10007728                memusehigh
 .text.poolimmutable
                0x10007768       0x34 alloc.o
                0x10007768                poolimmutable
 .text.poolchain
                0x1000779c        0x4 alloc.o
                0x1000779c                poolchain
 .text.pooldel  0x100077a0       0xba alloc.o
                0x100077a0                pooldel
 *fill*         0x1000785a        0x2 
 .text.pooladd  0x1000785c       0x58 alloc.o
                0x1000785c                pooladd
 .text.poolfree
                0x100078b4       0xd0 alloc.o
                0x100078b4                poolfree
 .text.poolmsize
                0x10007984       0x50 alloc.o
                0x10007984                poolmsize
 .text.poolread
                0x100079d4       0xb8 alloc.o
                0x100079d4                poolread
 .text.poolsummary
                0x10007a8c       0x40 alloc.o
                0x10007a8c                poolsummary
 .text.free     0x10007acc       0x48 alloc.o
                0x10007acc                free
 .text.setmalloctag
                0x10007b14        0xa alloc.o
                0x10007b14                setmalloctag
 .text.setrealloctag
                0x10007b1e        0xa alloc.o
                0x10007b1e                setrealloctag
 .text.msize    0x10007b28       0x20 alloc.o
                0x10007b28                msize
 .text.poolcompact
                0x10007b48       0xdc alloc.o
                0x10007b48                poolcompact
 .text.poolalloc
                0x10007c24      0x25c alloc.o
                0x10007c24                poolalloc
 .text.poolrealloc
                0x10007e80       0xac alloc.o
                0x10007e80                poolrealloc
 .text.malloc   0x10007f2c       0x38 alloc.o
                0x10007f2c                malloc
 .text.realloc  0x10007f64       0x4c alloc.o
                0x10007f64                realloc
 .text.smalloc  0x10007fb0       0x5c alloc.o
                0x10007fb0                smalloc
 .text.mallocz  0x1000800c       0x40 alloc.o
                0x1000800c                mallocz
 .text.poolsize
                0x1000804c       0x60 alloc.o
                0x1000804c                poolsize
 .text.poolinit
                0x100080ac       0x18 alloc.o
                0x100080ac                poolinit
 .text._allocb  0x100080c4       0x3e allocb.o
                0x100080c4                _allocb
 *fill*         0x10008102        0x2 
 .text.allocb   0x10008104       0x24 allocb.o
                0x10008104                allocb
 .text.iallocb  0x10008128       0x4c allocb.o
                0x10008128                iallocb
 .text.freeb    0x10008174       0x50 allocb.o
                0x10008174                freeb
 .text.iallocsummary
                0x100081c4       0x20 allocb.o
                0x100081c4                iallocsummary
 .text.growparse
                0x100081e4       0x48 chan.o
 .text.channame
                0x1000822c       0x2c chan.o
                0x1000822c                channame
 .text.isdotdot
                0x10008258       0x22 chan.o
                0x10008258                isdotdot
 .text.incref   0x1000827a       0x18 chan.o
                0x1000827a                incref
 *fill*         0x10008292        0x2 
 .text.decref   0x10008294       0x2c chan.o
                0x10008294                decref
 .text.kstrcpy  0x100082c0       0x60 chan.o
                0x100082c0                kstrcpy
 .text.emptystr
                0x10008320       0x16 chan.o
                0x10008320                emptystr
 *fill*         0x10008336        0x2 
 .text.kstrdup  0x10008338       0x54 chan.o
                0x10008338                kstrdup
 .text.chandevreset
                0x1000838c       0x1c chan.o
                0x1000838c                chandevreset
 .text.chandevinit
                0x100083a8       0x1c chan.o
                0x100083a8                chandevinit
 .text.newchan  0x100083c4       0x98 chan.o
                0x100083c4                newchan
 .text.newcname
                0x1000845c       0x3c chan.o
                0x1000845c                newcname
 .text.cnameclose
                0x10008498       0x28 chan.o
                0x10008498                cnameclose
 .text.eqchan   0x100084c0       0x44 chan.o
                0x100084c0                eqchan
 .text.eqchantdqid
                0x10008504       0x42 chan.o
                0x10008504                eqchantdqid
 .text.newmhead
                0x10008546       0x1e chan.o
                0x10008546                newmhead
 .text.cmount   0x10008564      0x1f4 chan.o
                0x10008564                cmount
 .text.cclone   0x10008758       0x48 chan.o
                0x10008758                cclone
 .text.cleancname
                0x100087a0       0x48 chan.o
                0x100087a0                cleancname
 .text.addelem  0x100087e8       0xb8 chan.o
                0x100087e8                addelem
 .text.memrchr  0x100088a0       0x18 chan.o
                0x100088a0                memrchr
 .text.skipslash
                0x100088b8       0x1a chan.o
                0x100088b8                skipslash
 .text.parsename
                0x100088d2       0x88 chan.o
 *fill*         0x1000895a        0x2 
 .text.validname
                0x1000895c       0x98 chan.o
                0x1000895c                validname
 .text.isdir    0x100089f4       0x18 chan.o
                0x100089f4                isdir
 .text.putmhead
                0x10008a0c       0x20 chan.o
                0x10008a0c                putmhead
 .text.chanfree
                0x10008a2c       0x6c chan.o
                0x10008a2c                chanfree
 .text.cclose   0x10008a98       0x74 chan.o
                0x10008a98                cclose
 .text.cunique  0x10008b0c       0x1e chan.o
                0x10008b0c                cunique
 *fill*         0x10008b2a        0x2 
 .text.undomount
                0x10008b2c       0xe0 chan.o
                0x10008b2c                undomount
 .text.createdir
                0x10008c0c       0x80 chan.o
                0x10008c0c                createdir
 .text.cunmount
                0x10008c8c      0x158 chan.o
                0x10008c8c                cunmount
 .text.findmount
                0x10008de4       0xe4 chan.o
                0x10008de4                findmount
 .text.domount  0x10008ec8       0x28 chan.o
                0x10008ec8                domount
 .text.walk     0x10008ef0      0x39c chan.o
                0x10008ef0                walk
 .text.namec    0x1000928c      0x680 chan.o
                0x1000928c                namec
 .text.tdel     0x1000990c       0x48 portclock.o
 .text.tadd     0x10009954      0x120 portclock.o
 .text.timeradd
                0x10009a74       0x88 portclock.o
                0x10009a74                timeradd
 .text.hzclock  0x10009afc       0x88 portclock.o
                0x10009afc                hzclock
 .text.timerintr
                0x10009b84       0xf4 portclock.o
                0x10009b84                timerintr
 .text.timersinit
                0x10009c78       0x28 portclock.o
                0x10009c78                timersinit
 .text.addclock0link
                0x10009ca0       0x88 portclock.o
                0x10009ca0                addclock0link
 .text.mkqid    0x10009d28        0xe dev.o
                0x10009d28                mkqid
 *fill*         0x10009d36        0x2 
 .text.devno    0x10009d38       0x3c dev.o
                0x10009d38                devno
 .text.devdir   0x10009d74       0x80 dev.o
                0x10009d74                devdir
 .text.devgen   0x10009df4       0x60 dev.o
                0x10009df4                devgen
 .text.devreset
                0x10009e54        0x2 dev.o
                0x10009e54                devreset
 .text.devinit  0x10009e56        0x2 dev.o
                0x10009e56                devinit
 .text.devshutdown
                0x10009e58        0x2 dev.o
                0x10009e58                devshutdown
 *fill*         0x10009e5a        0x2 
 .text.devattach
                0x10009e5c       0x68 dev.o
                0x10009e5c                devattach
 .text.devclone
                0x10009ec4       0x78 dev.o
                0x10009ec4                devclone
 .text.devwalk  0x10009f3c      0x1f0 dev.o
                0x10009f3c                devwalk
 .text.devstat  0x1000a12c      0x144 dev.o
                0x1000a12c                devstat
 .text.devdirread
                0x1000a270       0x6c dev.o
                0x1000a270                devdirread
 .text.devpermcheck
                0x1000a2dc       0x68 dev.o
                0x1000a2dc                devpermcheck
 .text.devopen  0x1000a344       0x80 dev.o
                0x1000a344                devopen
 .text.devcreate
                0x1000a3c4       0x10 dev.o
                0x1000a3c4                devcreate
 .text.devbread
                0x1000a3d4       0x84 dev.o
                0x1000a3d4                devbread
 .text.devbwrite
                0x1000a458       0x74 dev.o
                0x1000a458                devbwrite
 .text.devremove
                0x1000a4cc       0x10 dev.o
                0x1000a4cc                devremove
 .text.devwstat
                0x1000a4dc       0x10 dev.o
                0x1000a4dc                devwstat
 .text.validwstatname
                0x1000a4ec       0x38 dev.o
                0x1000a4ec                validwstatname
 .text._dial_string_parse
                0x1000a524       0x78 dial.o
 .text.identtrans
                0x1000a59c       0x5c dial.o
 .text.nettrans
                0x1000a5f8      0x160 dial.o
 .text.call     0x1000a758      0x16c dial.o
 .text.csdial   0x1000a8c4      0x13c dial.o
 .text.kdial    0x1000aa00       0xd8 dial.o
                0x1000aa00                kdial
 .text.kannounce
                0x1000aad8       0xb4 dial.o
                0x1000aad8                kannounce
 .text.klisten  0x1000ab8c       0x78 dial.o
                0x1000ab8c                klisten
 .text.pidlook  0x1000ac04       0x24 dis.o
 .text.tready   0x1000ac28       0x20 dis.o
                0x1000ac28                tready
 .text.accountant
                0x1000ac48       0x14 dis.o
 .text.grpleader
                0x1000ac5c       0x22 dis.o
 .text.addgrp   0x1000ac7e       0x26 dis.o
 .text.cdone    0x1000aca4       0x1a dis.o
 .text.delgrp   0x1000acbe       0x84 dis.o
 *fill*         0x1000ad42        0x2 
 .text.swiprog  0x1000ad44       0x38 dis.o
 .text.cwakeme  0x1000ad7c       0x16 dis.o
 .text.progpid  0x1000ad92        0xa dis.o
                0x1000ad92                progpid
 .text.progn    0x1000ad9c       0x1c dis.o
                0x1000ad9c                progn
 .text.tellsomeone
                0x1000adb8       0x6c dis.o
                0x1000adb8                tellsomeone
 .text.newgrp   0x1000ae24       0x54 dis.o
                0x1000ae24                newgrp
 .text.addprog  0x1000ae78       0x38 dis.o
                0x1000ae78                addprog
 .text.addrun   0x1000aeb0       0x60 dis.o
                0x1000aeb0                addrun
 .text.newprog  0x1000af10      0x1d8 dis.o
                0x1000af10                newprog
 .text.exprog   0x1000b0e8       0xa4 dis.o
                0x1000b0e8                exprog
 .text.killcomm
                0x1000b18c       0x50 dis.o
                0x1000b18c                killcomm
 .text.delrun   0x1000b1dc       0x20 dis.o
                0x1000b1dc                delrun
 .text.delrunq  0x1000b1fc       0x3c dis.o
                0x1000b1fc                delrunq
 .text.execatidle
                0x1000b238       0xc0 dis.o
 .text.delruntail
                0x1000b2f8       0x1c dis.o
                0x1000b2f8                delruntail
 .text.currun   0x1000b314        0xc dis.o
                0x1000b314                currun
 .text.schedmod
                0x1000b320       0x74 dis.o
                0x1000b320                schedmod
 .text.acquire  0x1000b394       0x9c dis.o
                0x1000b394                acquire
 .text.release  0x1000b430       0xac dis.o
                0x1000b430                release
 .text.delprog  0x1000b4dc       0xc8 dis.o
                0x1000b4dc                delprog
 .text.killprog
                0x1000b5a4      0x12c dis.o
                0x1000b5a4                killprog
 .text.propex   0x1000b6d0       0x74 dis.o
 .text.renameproguser
                0x1000b744       0x44 dis.o
                0x1000b744                renameproguser
 .text.killgrp  0x1000b788      0x104 dis.o
                0x1000b788                killgrp
 .text.cblock   0x1000b88c       0x8c dis.o
                0x1000b88c                cblock
 .text.iyield   0x1000b918       0x90 dis.o
                0x1000b918                iyield
 .text.startup  0x1000b9a8       0x54 dis.o
                0x1000b9a8                startup
 .text.progexit
                0x1000b9fc      0x11c dis.o
                0x1000b9fc                progexit
 .text.pushrun  0x1000bb18       0x34 dis.o
                0x1000bb18                pushrun
 .text.vmachine
                0x1000bb4c      0x154 dis.o
                0x1000bb4c                vmachine
 .text.disinit  0x1000bca0      0x19c dis.o
                0x1000bca0                disinit
 .text.freeframe
                0x1000be3c       0x2c exception.o
 .text.ematch   0x1000be68       0x44 exception.o
 .text.setstr   0x1000beac       0x2a exception.o
 *fill*         0x1000bed6        0x2 
 .text.newestring
                0x1000bed8       0x60 exception.o
 .text.excinit  0x1000bf38       0x18 exception.o
                0x1000bf38                excinit
 .text.handler  0x1000bf50      0x2e4 exception.o
                0x1000bf50                handler
 .text.exwork   0x1000c234       0x10 exportfs.o
 .text.exiounit
                0x1000c244       0x18 exportfs.o
 .text.Exrmtqid
                0x1000c25c       0x14 exportfs.o
 .text.Exauth   0x1000c270        0x8 exportfs.o
 .text.uqidhash
                0x1000c278        0xe exportfs.o
 .text.uqidlook
                0x1000c286       0x40 exportfs.o
 .text.uqidexists
                0x1000c2c6       0x2c exportfs.o
 *fill*         0x1000c2f2        0x2 
 .text.exreadn  0x1000c2f4       0x80 exportfs.o
 .text.exreadmsg
                0x1000c374       0x70 exportfs.o
 .text.exportinit
                0x1000c3e4       0xa8 exportfs.o
 .text.Exgetfid
                0x1000c48c       0x48 exportfs.o
 .text.Exmkfid  0x1000c4d4       0x78 exportfs.o
 .text.uqidalloc
                0x1000c54c       0xd4 exportfs.o
 .text.exmount  0x1000c620       0xa8 exportfs.o
 .text.freeuqid
                0x1000c6c8       0x50 exportfs.o
 .text.Exputfid
                0x1000c718       0x5c exportfs.o
 .text.Exwstat  0x1000c774       0xd8 exportfs.o
 .text.Exstat   0x1000c84c       0xb8 exportfs.o
 .text.Exremove
                0x1000c904       0xbc exportfs.o
 .text.Exclunk  0x1000c9c0       0x28 exportfs.o
 .text.Exwrite  0x1000c9e8      0x120 exportfs.o
 .text.exfreefids
                0x1000cb08       0x54 exportfs.o
 .text.Exread   0x1000cb5c      0x218 exportfs.o
 .text.Exopen   0x1000cd74      0x130 exportfs.o
 .text.Excreate
                0x1000cea4      0x264 exportfs.o
 .text.Exattach
                0x1000d108       0x98 exportfs.o
 .text.exisroot
                0x1000d1a0       0x10 exportfs.o
 .text.safewalk
                0x1000d1b0       0x54 exportfs.o
 .text.Exwalk   0x1000d204      0x1ac exportfs.o
 .text.Exversion
                0x1000d3b0       0x88 exportfs.o
 .text.exreply  0x1000d438       0xdc exportfs.o
 .text.exfree   0x1000d514       0x88 exportfs.o
 .text.exfreeq  0x1000d59c       0x2a exportfs.o
 *fill*         0x1000d5c6        0x2 
 .text.exslave  0x1000d5c8      0x2c8 exportfs.o
 .text.exflushed
                0x1000d890       0xec exportfs.o
 .text.exshutdown
                0x1000d97c       0x68 exportfs.o
 .text.exportproc
                0x1000d9e4      0x290 exportfs.o
 .text.export   0x1000dc74      0x188 exportfs.o
                0x1000dc74                export
 .text.freeFD   0x1000ddfc       0x20 inferno.o
                0x1000ddfc                freeFD
 .text.freeFileIO
                0x1000de1c       0x18 inferno.o
                0x1000de1c                freeFileIO
 .text.unpackdir
                0x1000de34       0x56 inferno.o
 .text.packdir  0x1000de8a       0xe6 inferno.o
 .text.sysinit  0x1000df70       0x8c inferno.o
                0x1000df70                sysinit
 .text.mkfd     0x1000dffc       0x34 inferno.o
                0x1000dffc                mkfd
 .text.syserr   0x1000e030       0x1a inferno.o
                0x1000e030                syserr
 *fill*         0x1000e04a        0x2 
 .text.Sys_millisec
                0x1000e04c       0x18 inferno.o
                0x1000e04c                Sys_millisec
 .text.Sys_open
                0x1000e064       0x3a inferno.o
                0x1000e064                Sys_open
 .text.Sys_pipe
                0x1000e09e       0x52 inferno.o
                0x1000e09e                Sys_pipe
 .text.Sys_fildes
                0x1000e0f0       0x36 inferno.o
                0x1000e0f0                Sys_fildes
 .text.Sys_dup  0x1000e126       0x1a inferno.o
                0x1000e126                Sys_dup
 .text.Sys_create
                0x1000e140       0x3c inferno.o
                0x1000e140                Sys_create
 .text.Sys_remove
                0x1000e17c       0x1c inferno.o
                0x1000e17c                Sys_remove
 .text.Sys_seek
                0x1000e198       0x32 inferno.o
                0x1000e198                Sys_seek
 .text.Sys_unmount
                0x1000e1ca       0x28 inferno.o
                0x1000e1ca                Sys_unmount
 .text.Sys_read
                0x1000e1f2       0x46 inferno.o
                0x1000e1f2                Sys_read
 .text.Sys_readn
                0x1000e238       0x60 inferno.o
                0x1000e238                Sys_readn
 .text.Sys_pread
                0x1000e298       0x52 inferno.o
                0x1000e298                Sys_pread
 .text.Sys_chdir
                0x1000e2ea       0x1c inferno.o
                0x1000e2ea                Sys_chdir
 .text.Sys_write
                0x1000e306       0x46 inferno.o
                0x1000e306                Sys_write
 .text.Sys_pwrite
                0x1000e34c       0x52 inferno.o
                0x1000e34c                Sys_pwrite
 *fill*         0x1000e39e        0x2 
 .text.Sys_fstat
                0x1000e3a0       0x74 inferno.o
                0x1000e3a0                Sys_fstat
 .text.Sys_stat
                0x1000e414       0x6c inferno.o
                0x1000e414                Sys_stat
 .text.Sys_fd2path
                0x1000e480       0x70 inferno.o
                0x1000e480                Sys_fd2path
 .text.Sys_mount
                0x1000e4f0       0x50 inferno.o
                0x1000e4f0                Sys_mount
 .text.Sys_bind
                0x1000e540       0x2a inferno.o
                0x1000e540                Sys_bind
 .text.Sys_wstat
                0x1000e56a       0x2c inferno.o
                0x1000e56a                Sys_wstat
 .text.Sys_fwstat
                0x1000e596       0x34 inferno.o
                0x1000e596                Sys_fwstat
 *fill*         0x1000e5ca        0x2 
 .text.Sys_print
                0x1000e5cc       0x94 inferno.o
                0x1000e5cc                Sys_print
 .text.Sys_fprint
                0x1000e660       0x88 inferno.o
                0x1000e660                Sys_fprint
 .text.Sys_werrstr
                0x1000e6e8       0x28 inferno.o
                0x1000e6e8                Sys_werrstr
 .text.Sys_dial
                0x1000e710       0x78 inferno.o
                0x1000e710                Sys_dial
 .text.Sys_announce
                0x1000e788       0x62 inferno.o
                0x1000e788                Sys_announce
 .text.Sys_listen
                0x1000e7ea       0x62 inferno.o
                0x1000e7ea                Sys_listen
 .text.Sys_sleep
                0x1000e84c       0x74 inferno.o
                0x1000e84c                Sys_sleep
 .text.Sys_stream
                0x1000e8c0       0xbc inferno.o
                0x1000e8c0                Sys_stream
 .text.Sys_export
                0x1000e97c       0x34 inferno.o
                0x1000e97c                Sys_export
 .text.Sys_file2chan
                0x1000e9b0       0x84 inferno.o
                0x1000e9b0                Sys_file2chan
 .text.Sys_pctl
                0x1000ea34      0x26c inferno.o
                0x1000ea34                Sys_pctl
 .text.Sys_dirread
                0x1000eca0       0xc4 inferno.o
                0x1000eca0                Sys_dirread
 .text.Sys_fauth
                0x1000ed64       0x48 inferno.o
                0x1000ed64                Sys_fauth
 .text.Sys_fversion
                0x1000edac       0x78 inferno.o
                0x1000edac                Sys_fversion
 .text.Sys_iounit
                0x1000ee24       0x24 inferno.o
                0x1000ee24                Sys_iounit
 .text.ccom     0x1000ee48       0x5c inferno.o
                0x1000ee48                ccom
 .text.crecv    0x1000eea4       0x50 inferno.o
                0x1000eea4                crecv
 .text.csend    0x1000eef4       0x58 inferno.o
                0x1000eef4                csend
 .text.unicode  0x1000ef4c       0x44 latin1.o
                0x1000ef4c                unicode
 .text.latin1   0x1000ef90       0x7c latin1.o
                0x1000ef90                latin1
 .text.mul64fract
                0x1000f00c       0x62 mul64fract.o
                0x1000f00c                mul64fract
 .text.cinit    0x1000f06e        0x2 nocache.o
                0x1000f06e                cinit
 .text.copen    0x1000f070        0xc nocache.o
                0x1000f070                copen
 .text.cread    0x1000f07c        0x4 nocache.o
                0x1000f07c                cread
 .text.cwrite   0x1000f080        0x2 nocache.o
                0x1000f080                cwrite
 .text.cupdate  0x1000f082        0x2 nocache.o
                0x1000f082                cupdate
 .text.dynldable
                0x1000f084        0x4 nodynld.o
                0x1000f084                dynldable
 .text.ncmdfield
                0x1000f088       0x40 parse.o
 .text.parsecmd
                0x1000f0c8       0xc8 parse.o
                0x1000f0c8                parsecmd
 .text.cmderror
                0x1000f190       0x78 parse.o
                0x1000f190                cmderror
 .text.lookupcmd
                0x1000f208       0x74 parse.o
                0x1000f208                lookupcmd
 .text.newpgrp  0x1000f27c       0x2c pgrp.o
                0x1000f27c                newpgrp
 .text.pgrpinsert
                0x1000f2a8       0x2e pgrp.o
                0x1000f2a8                pgrpinsert
 .text.newfgrp  0x1000f2d6       0x4e pgrp.o
                0x1000f2d6                newfgrp
 .text.dupfgrp  0x1000f324       0x9c pgrp.o
                0x1000f324                dupfgrp
 .text.closefgrp
                0x1000f3c0       0x38 pgrp.o
                0x1000f3c0                closefgrp
 .text.newmount
                0x1000f3f8       0x48 pgrp.o
                0x1000f3f8                newmount
 .text.pgrpcpy  0x1000f440      0x1b4 pgrp.o
                0x1000f440                pgrpcpy
 .text.mountfree
                0x1000f5f4       0x26 pgrp.o
                0x1000f5f4                mountfree
 .text.closepgrp
                0x1000f61a       0xa6 pgrp.o
                0x1000f61a                closepgrp
 .text.resrcwait
                0x1000f6c0       0x60 pgrp.o
                0x1000f6c0                resrcwait
 .text.freeskey
                0x1000f720       0x24 pgrp.o
                0x1000f720                freeskey
 .text.closesigs
                0x1000f744       0x2e pgrp.o
                0x1000f744                closesigs
 *fill*         0x1000f772        0x2 
 .text._fmtlock
                0x1000f774       0x10 print.o
                0x1000f774                _fmtlock
 .text._fmtunlock
                0x1000f784       0x10 print.o
                0x1000f784                _fmtunlock
 .text.errfmt   0x1000f794        0x6 print.o
                0x1000f794                errfmt
 *fill*         0x1000f79a        0x2 
 .text.tfn      0x1000f79c       0x34 proc.o
                0x1000f79c                tfn
 .text.return0  0x1000f7d0        0x4 proc.o
                0x1000f7d0                return0
 .text.procdump
                0x1000f7d4       0xa8 proc.o
                0x1000f7d4                procdump
 .text.ready    0x1000f87c       0x7c proc.o
                0x1000f87c                ready
 .text.anyready
                0x1000f8f8       0x20 proc.o
                0x1000f8f8                anyready
 .text.anyhigher
                0x1000f918       0x20 proc.o
                0x1000f918                anyhigher
 .text.runproc  0x1000f938      0x140 proc.o
                0x1000f938                runproc
 .text.sched    0x1000fa78       0x58 proc.o
                0x1000fa78                sched
 .text.schedinit
                0x1000fad0       0x5c proc.o
                0x1000fad0                schedinit
 .text.setpri   0x1000fb2c       0x2c proc.o
                0x1000fb2c                setpri
 .text.newproc  0x1000fb58       0xf0 proc.o
                0x1000fb58                newproc
 .text.procinit
                0x1000fc48       0x50 proc.o
                0x1000fc48                procinit
 .text.wakeup   0x1000fc98       0x48 proc.o
                0x1000fc98                wakeup
 .text.swiproc  0x1000fce0       0x66 proc.o
                0x1000fce0                swiproc
 *fill*         0x1000fd46        0x2 
 .text.notkilled
                0x1000fd48       0x30 proc.o
                0x1000fd48                notkilled
 .text.pexit    0x1000fd78       0x64 proc.o
                0x1000fd78                pexit
 .text.proctab  0x1000fddc       0x18 proc.o
                0x1000fddc                proctab
 .text.kproc    0x1000fdf4       0xdc proc.o
                0x1000fdf4                kproc
 .text.kerrstr  0x1000fed0       0x38 proc.o
                0x1000fed0                kerrstr
 .text.kgerrstr
                0x1000ff08       0x38 proc.o
                0x1000ff08                kgerrstr
 .text.kwerrstr
                0x1000ff40       0x30 proc.o
                0x1000ff40                kwerrstr
 .text.nexterror
                0x1000ff70       0x20 proc.o
                0x1000ff70                nexterror
 .text.error    0x1000ff90       0x68 proc.o
                0x1000ff90                error
 .text.sleep    0x1000fff8      0x12c proc.o
                0x1000fff8                sleep
 .text.errorf   0x10010124       0x20 proc.o
                0x10010124                errorf
 .text.tsleep   0x10010144      0x104 proc.o
                0x10010144                tsleep
 .text.exhausted
                0x10010248       0x2c proc.o
                0x10010248                exhausted
 .text.renameuser
                0x10010274       0x50 proc.o
                0x10010274                renameuser
 .text.notempty
                0x100102c4       0x18 qio.o
 .text.qnotfull
                0x100102dc       0x18 qio.o
 .text.qwakeup_iunlock
                0x100102f4       0x44 qio.o
 .text.qwait    0x10010338       0x6c qio.o
 .text.ixsummary
                0x100103a4       0x68 qio.o
                0x100103a4                ixsummary
 .text.freeblist
                0x1001040c       0x16 qio.o
                0x1001040c                freeblist
 .text.blocklen
                0x10010422       0x16 qio.o
                0x10010422                blocklen
 .text.blockalloclen
                0x10010438       0x16 qio.o
                0x10010438                blockalloclen
 *fill*         0x1001044e        0x2 
 .text.pullupblock
                0x10010450       0x9c qio.o
                0x10010450                pullupblock
 .text.pullupqueue
                0x100104ec       0x2c qio.o
                0x100104ec                pullupqueue
 .text.qdiscard
                0x10010518       0x8c qio.o
                0x10010518                qdiscard
 .text.qproduce
                0x100105a4       0xcc qio.o
                0x100105a4                qproduce
 .text.qopen    0x10010670       0x2c qio.o
                0x10010670                qopen
 .text.qaddlist
                0x1001069c       0x3e qio.o
                0x1001069c                qaddlist
 .text.qremove  0x100106da       0x2a qio.o
                0x100106da                qremove
 .text.bl2mem   0x10010704       0x4a qio.o
                0x10010704                bl2mem
 .text.qputback
                0x1001074e       0x2e qio.o
                0x1001074e                qputback
 .text.qbread   0x1001077c       0xf4 qio.o
                0x1001077c                qbread
 .text.qread    0x10010870      0x140 qio.o
                0x10010870                qread
 .text.qbwrite  0x100109b0      0x168 qio.o
                0x100109b0                qbwrite
 .text.qwrite   0x10010b18       0x9c qio.o
                0x10010b18                qwrite
 .text.qiwrite  0x10010bb4       0xb4 qio.o
                0x10010bb4                qiwrite
 .text.qclose   0x10010c68       0x50 qio.o
                0x10010c68                qclose
 .text.qfree    0x10010cb8       0x10 qio.o
                0x10010cb8                qfree
 .text.qhangup  0x10010cc8       0x50 qio.o
                0x10010cc8                qhangup
 .text.qreopen  0x10010d18       0x26 qio.o
                0x10010d18                qreopen
 .text.qlen     0x10010d3e        0x4 qio.o
                0x10010d3e                qlen
 .text.qcanread
                0x10010d42        0x8 qio.o
                0x10010d42                qcanread
 .text.qnoblock
                0x10010d4a        0x4 qio.o
                0x10010d4a                qnoblock
 *fill*         0x10010d4e        0x2 
 .text.qlock    0x10010d50       0x50 qlock.o
                0x10010d50                qlock
 .text.canqlock
                0x10010da0       0x2a qlock.o
                0x10010da0                canqlock
 .text.qunlock  0x10010dca       0x34 qlock.o
                0x10010dca                qunlock
 .text.rlock    0x10010dfe       0x30 qlock.o
                0x10010dfe                rlock
 .text.canrlock
                0x10010e2e       0x38 qlock.o
                0x10010e2e                canrlock
 .text.runlock  0x10010e66       0x24 qlock.o
                0x10010e66                runlock
 .text.wlock    0x10010e8a       0x14 qlock.o
                0x10010e8a                wlock
 .text.wunlock  0x10010e9e       0x14 qlock.o
                0x10010e9e                wunlock
 *fill*         0x10010eb2        0x2 
 .text.rbnotfull
                0x10010eb4       0x34 random.o
 .text.rbnotempty
                0x10010ee8       0x1c random.o
 .text.randomclock
                0x10010f04       0xa8 random.o
 .text.genrandom
                0x10010fac       0x5c random.o
 .text.randominit
                0x10011008       0x38 random.o
                0x10011008                randominit
 .text.randomread
                0x10011040      0x16c random.o
                0x10011040                randomread
 .text.growfd   0x100111ac       0x4e sysfile.o
 .text.unionrewind
                0x100111fa       0x2a sysfile.o
 .text.dirpackage
                0x10011224       0xd8 sysfile.o
 .text.newfd    0x100112fc       0x74 sysfile.o
                0x100112fc                newfd
 .text.fdtochan
                0x10011370       0xc0 sysfile.o
                0x10011370                fdtochan
 .text.rwrite   0x10011430      0x198 sysfile.o
 .text.openmode
                0x100115c8       0x30 sysfile.o
                0x100115c8                openmode
 .text.fdclose  0x100115f8       0x56 sysfile.o
                0x100115f8                fdclose
 *fill*         0x1001164e        0x2 
 .text.kchdir   0x10011650       0x6c sysfile.o
                0x10011650                kchdir
 .text.kfgrpclose
                0x100116bc       0x5c sysfile.o
                0x100116bc                kfgrpclose
 .text.kclose   0x10011718       0x1c sysfile.o
                0x10011718                kclose
 .text.kcreate  0x10011734       0x98 sysfile.o
                0x10011734                kcreate
 .text.kdup     0x100117cc      0x124 sysfile.o
                0x100117cc                kdup
 .text.kfd2path
                0x100118f0       0xa0 sysfile.o
                0x100118f0                kfd2path
 .text.kfauth   0x10011990       0xe4 sysfile.o
                0x10011990                kfauth
 .text.kfversion
                0x10011a74       0xc4 sysfile.o
                0x10011a74                kfversion
 .text.kpipe    0x10011b38      0x144 sysfile.o
                0x10011b38                kpipe
 .text.bindmount
                0x10011c7c       0x80 sysfile.o
                0x10011c7c                bindmount
 .text.kbind    0x10011cfc       0x98 sysfile.o
                0x10011cfc                kbind
 .text.kmount   0x10011d94       0xec sysfile.o
                0x10011d94                kmount
 .text.kunmount
                0x10011e80       0x90 sysfile.o
                0x10011e80                kunmount
 .text.kopen    0x10011f10       0x90 sysfile.o
                0x10011f10                kopen
 .text.unionread
                0x10011fa0      0x114 sysfile.o
                0x10011fa0                unionread
 .text.rread    0x100120b4      0x160 sysfile.o
 .text.kread    0x10012214        0xa sysfile.o
                0x10012214                kread
 .text.kpread   0x1001221e        0xa sysfile.o
                0x1001221e                kpread
 .text.kremove  0x10012228       0x9c sysfile.o
                0x10012228                kremove
 .text.validstat
                0x100122c4       0x5c sysfile.o
                0x100122c4                validstat
 .text.kfwstat  0x10012320       0xb8 sysfile.o
                0x10012320                kfwstat
 .text.kwrite   0x100123d8        0xa sysfile.o
                0x100123d8                kwrite
 .text.kpwrite  0x100123e2        0xa sysfile.o
                0x100123e2                kpwrite
 .text.kwstat   0x100123ec       0xa4 sysfile.o
                0x100123ec                kwstat
 .text.chandirstat
                0x10012490       0xb0 sysfile.o
                0x10012490                chandirstat
 .text.kseek    0x10012540      0x1b8 sysfile.o
                0x10012540                kseek
 .text.kdirstat
                0x100126f8       0x88 sysfile.o
                0x100126f8                kdirstat
 .text.kdirfstat
                0x10012780       0x9c sysfile.o
                0x10012780                kdirfstat
 .text.kdirwstat
                0x1001281c       0x38 sysfile.o
                0x1001281c                kdirwstat
 .text.kdirfwstat
                0x10012854       0x38 sysfile.o
                0x10012854                kdirfwstat
 .text.kdirread
                0x1001288c       0xb0 sysfile.o
                0x1001288c                kdirread
 .text.kiounit  0x1001293c       0x68 sysfile.o
                0x1001293c                kiounit
 .text.lockloop
                0x100129a4       0x30 taslock.o
 .text.lock     0x100129d4       0xa8 taslock.o
                0x100129d4                lock
 .text.ilock    0x10012a7c       0x60 taslock.o
                0x10012a7c                ilock
 .text.canlock  0x10012adc       0x30 taslock.o
                0x10012adc                canlock
 .text.unlock   0x10012b0c       0x4c taslock.o
                0x10012b0c                unlock
 .text.iunlock  0x10012b58       0x2c taslock.o
                0x10012b58                iunlock
 .text.todfix   0x10012b84       0xa0 tod.o
                0x10012b84                todfix
 .text.tod2fastticks
                0x10012c24       0x4c tod.o
                0x10012c24                tod2fastticks
 .text.mk64fract
                0x10012c70        0xc tod.o
                0x10012c70                mk64fract
 .text.todsetfreq
                0x10012c7c       0x44 tod.o
                0x10012c7c                todsetfreq
 .text.todinit  0x10012cc0       0x4c tod.o
                0x10012cc0                todinit
 .text.todget   0x10012d0c       0xf4 tod.o
                0x10012d0c                todget
 .text.ns2fastticks
                0x10012e00       0x38 tod.o
                0x10012e00                ns2fastticks
 .text.xallocz  0x10012e38       0x84 xalloc.o
                0x10012e38                xallocz
 .text.xalloc   0x10012ebc        0xa xalloc.o
                0x10012ebc                xalloc
 *fill*         0x10012ec6        0x2 
 .text.xhole    0x10012ec8       0xdc xalloc.o
                0x10012ec8                xhole
 .text.xinit    0x10012fa4       0x84 xalloc.o
                0x10012fa4                xinit
 .text.xsummary
                0x10013028       0x5c xalloc.o
                0x10013028                xsummary
 .text.ixprt    0x10013084        0xc xalloc.o
 .text.isvalid_wa
                0x10013090       0x1c dump.o
                0x10013090                isvalid_wa
 .text._dumpstack
                0x100130ac      0x11c dump.o
 .text.callwithureg
                0x100131c8       0x1c dump.o
                0x100131c8                callwithureg
 .text.dumpstack
                0x100131e4       0x10 dump.o
                0x100131e4                dumpstack
 .text.links    0x100131f4        0x8 pico.o
                0x100131f4                links
 .text.modinit  0x100131fc        0xc pico.o
                0x100131fc                modinit
 .text          0x10013208      0x438 /home/pi/github/inferno-pico/Pico/arm/lib/libinterp.a(alt.o)
                0x100133bc                altdone
                0x10013580                altgone
                0x100135ac                xecalt
 .text          0x10013640     0x2fa4 /home/pi/github/inferno-pico/Pico/arm/lib/libinterp.a(comp-arm.o)
                0x10016058                comd
                0x100160f4                comi
                0x10016160                typecom
                0x10016210                compile
 .text          0x100165e4      0x23c /home/pi/github/inferno-pico/Pico/arm/lib/libinterp.a(conv.o)
                0x100165e4                aconv
                0x10016678                Dconv
 .text          0x10016820     0x1a50 /home/pi/github/inferno-pico/Pico/arm/lib/libinterp.a(dec.o)
 .text          0x10018270      0x5bc /home/pi/github/inferno-pico/Pico/arm/lib/libinterp.a(gc.o)
                0x10018418                ptradd
                0x1001845c                ptrdel
                0x10018490                noptrs
                0x10018492                markheap
                0x1001855c                markarray
                0x100185b8                marklist
                0x10018620                rungc
 .text          0x1001882c      0x7b8 /home/pi/github/inferno-pico/Pico/arm/lib/libinterp.a(heap.o)
                0x1001882c                freestring
                0x1001883a                heapref
                0x10018840                dtype
                0x1001887c                checktype
                0x100188ec                freetype
                0x1001890c                destroy
                0x100189a8                freeptrs
                0x10018a40                freelist
                0x10018af0                freeheap
                0x10018b08                freearray
                0x10018b58                freemodlink
                0x10018b80                freechan
                0x10018bbc                incmem
                0x10018c2c                scanptrs
                0x10018c8c                initmem
                0x10018cfe                nheap
                0x10018d4c                heapz
                0x10018dbc                heap
                0x10018e20                hmsize
                0x10018e34                initarray
                0x10018e64                heaparray
                0x10018ea4                arraycpy
                0x10018f54                newmp
 .text          0x10018fe4      0x1fc /home/pi/github/inferno-pico/Pico/arm/lib/libinterp.a(link.o)
                0x100190b8                runtime
                0x100190ce                mlink
                0x100190f0                mklinkmod
                0x10019130                linkmod
                0x100191c2                destroylinks
 .text          0x100191e0      0xa1c /home/pi/github/inferno-pico/Pico/arm/lib/libinterp.a(load.o)
                0x10019282                canontod
                0x1001928c                load
                0x10019298                brpatch
                0x100192de                newmod
                0x10019330                lookmod
                0x1001935c                freemod
                0x100193f0                parsemod
                0x10019ba4                unload
 .text          0x10019bfc      0xb08 /home/pi/github/inferno-pico/Pico/arm/lib/libinterp.a(math.o)
                0x10019bfc                Math_bits32real
                0x10019c0e                Math_bits64real
                0x10019c1a                Math_realbits32
                0x10019c2c                Math_realbits64
                0x10019cdc                Math_import_int
                0x10019d28                Math_import_real32
                0x10019d88                Math_import_real
                0x10019e28                Math_export_int
                0x10019e70                Math_export_real32
                0x10019ec0                Math_export_real
                0x10019f28                Math_getFPcontrol
                0x10019f36                Math_getFPstatus
                0x10019f44                Math_finite
                0x10019f54                Math_ilogb
                0x10019f64                Math_isnan
                0x10019f74                Math_acos
                0x10019f86                Math_acosh
                0x10019f98                Math_asin
                0x10019faa                Math_asinh
                0x10019fbc                Math_atan
                0x10019fce                Math_atanh
                0x10019fe0                Math_cbrt
                0x10019ff2                Math_ceil
                0x1001a004                Math_cos
                0x1001a016                Math_cosh
                0x1001a028                Math_erf
                0x1001a03a                Math_erfc
                0x1001a04c                Math_exp
                0x1001a05e                Math_expm1
                0x1001a070                Math_fabs
                0x1001a082                Math_floor
                0x1001a094                Math_j0
                0x1001a0a6                Math_j1
                0x1001a0b8                Math_log
                0x1001a0ca                Math_log10
                0x1001a0dc                Math_log1p
                0x1001a0ee                Math_rint
                0x1001a100                Math_sin
                0x1001a112                Math_sinh
                0x1001a124                Math_sqrt
                0x1001a136                Math_tan
                0x1001a148                Math_tanh
                0x1001a15a                Math_y0
                0x1001a16c                Math_y1
                0x1001a17e                Math_fdim
                0x1001a194                Math_fmax
                0x1001a1aa                Math_fmin
                0x1001a1c0                Math_fmod
                0x1001a1d6                Math_hypot
                0x1001a1ec                Math_nextafter
                0x1001a202                Math_pow
                0x1001a218                Math_FPcontrol
                0x1001a22a                Math_FPstatus
                0x1001a23c                Math_atan2
                0x1001a252                Math_copysign
                0x1001a268                Math_jn
                0x1001a27c                Math_lgamma
                0x1001a290                Math_modf
                0x1001a2b6                Math_pow10
                0x1001a2c6                Math_remainder
                0x1001a2dc                Math_scalbn
                0x1001a2f0                Math_yn
                0x1001a304                Math_dot
                0x1001a334                Math_iamax
                0x1001a346                Math_norm2
                0x1001a35a                Math_norm1
                0x1001a36e                Math_gemm
                0x1001a480                mathmodinit
                0x1001a4c4                rqsort
                0x1001a6b4                Math_sort
 .text          0x1001a704      0x1c0 /home/pi/github/inferno-pico/Pico/arm/lib/libinterp.a(readmod.o)
                0x1001a704                readmod
 .text          0x1001a8c4      0x7ac /home/pi/github/inferno-pico/Pico/arm/lib/libinterp.a(runt.o)
                0x1001a900                Sys_tokenize
                0x1001aa70                Sys_utfbytes
                0x1001aaa4                Sys_byte2char
                0x1001ab44                Sys_char2byte
                0x1001abb8                xprint
                0x1001ae2c                bigxprint
                0x1001ae78                builtinmod
                0x1001aee8                sysmodinit
                0x1001af04                retnstr
                0x1001af22                retstr
                0x1001af4a                Sys_sprint
                0x1001afae                mem2array
                0x1001b004                Sys_aprint
 .text          0x1001b070        0x8 /home/pi/github/inferno-pico/Pico/arm/lib/libinterp.a(sign.o)
                0x1001b070                verifysigner
                0x1001b074                mustbesigned
 .text          0x1001b078      0x168 /home/pi/github/inferno-pico/Pico/arm/lib/libinterp.a(stack.o)
                0x1001b078                newstack
                0x1001b100                extend
                0x1001b170                unextend
                0x1001b1a0                unframe
 .text          0x1001b1e0     0x2684 /home/pi/github/inferno-pico/Pico/arm/lib/libinterp.a(xec.o)
                0x1001b1e0                runt
                0x1001b1e2                negf
                0x1001b200                jmp
                0x1001b210                movpc
                0x1001b22c                lea
                0x1001b23c                movb
                0x1001b24c                movw
                0x1001b25c                movf
                0x1001b270                movl
                0x1001b284                cvtbw
                0x1001b294                cvtwb
                0x1001b2a4                cvtrf
                0x1001b2bc                cvtfr
                0x1001b2d4                cvtws
                0x1001b2e4                cvtsw
                0x1001b2f8                cvtwf
                0x1001b310                addb
                0x1001b328                addw
                0x1001b340                addl
                0x1001b360                addf
                0x1001b384                subb
                0x1001b39c                subw
                0x1001b3b4                subl
                0x1001b3d4                subf
                0x1001b3f8                divb
                0x1001b414                divw
                0x1001b430                divl
                0x1001b454                divf
                0x1001b478                modb
                0x1001b494                modw
                0x1001b4b0                modl
                0x1001b4d4                mulb
                0x1001b4ec                mulw
                0x1001b504                mull
                0x1001b528                mulf
                0x1001b54c                andb
                0x1001b564                andw
                0x1001b57c                andl
                0x1001b59c                xorb
                0x1001b5b4                xorw
                0x1001b5cc                xorl
                0x1001b5ec                orb
                0x1001b604                orw
                0x1001b61c                orl
                0x1001b63c                shlb
                0x1001b654                shlw
                0x1001b66c                shll
                0x1001b6a4                shrb
                0x1001b6bc                shrw
                0x1001b6d4                shrl
                0x1001b70c                lsrw
                0x1001b724                lsrl
                0x1001b75c                beqb
                0x1001b77c                bneb
                0x1001b798                bltb
                0x1001b7b4                bleb
                0x1001b7d0                bgtb
                0x1001b7ec                bgeb
                0x1001b808                beqw
                0x1001b828                bnew
                0x1001b844                bltw
                0x1001b860                blew
                0x1001b87c                bgtw
                0x1001b898                bgew
                0x1001b8b4                beql
                0x1001b8dc                bnel
                0x1001b904                bltl
                0x1001b930                blel
                0x1001b958                bgtl
                0x1001b984                bgel
                0x1001b9ac                beqf
                0x1001b9d4                bnef
                0x1001b9fc                bltf
                0x1001ba24                blef
                0x1001ba4c                bgtf
                0x1001ba74                bgef
                0x1001ba9c                cvtwl
                0x1001bab0                cvtlw
                0x1001bac0                cvtlf
                0x1001badc                cvtfl
                0x1001bb2c                cvtfw
                0x1001bb78                iexpw
                0x1001bbbc                iexpl
                0x1001bc44                iexpf
                0x1001bcd0                icase
                0x1001bd34                casel
                0x1001bdb0                igoto
                0x1001bde4                call
                0x1001be00                lena
                0x1001be1c                lenl
                0x1001be84                headb
                0x1001be98                headw
                0x1001beac                headl
                0x1001bec4                headf
                0x1001bedc                eclr
                0x1001bede                mulx
                0x1001bf24                divx
                0x1001bf88                cvtxx
                0x1001bfc4                mulx0
                0x1001c044                divx0
                0x1001c0c0                cvtxx0
                0x1001c134                mulx1
                0x1001c28c                divx1
                0x1001c398                cvtxx1
                0x1001c4a8                cvtfx
                0x1001c4fc                cvtxf
                0x1001c520                movm
                0x1001c538                headm
                0x1001c554                beqc
                0x1001c578                bnec
                0x1001c59c                bltc
                0x1001c5c0                blec
                0x1001c5e4                bgtc
                0x1001c608                bgec
                0x1001c62c                casec
                0x1001c700                iexit
                0x1001c710                indx
                0x1001c748                indw
                0x1001c77c                indf
                0x1001c7b0                indl
                0x1001c7e4                indb
                0x1001c814                tcmp
                0x1001c844                badop
                0x1001c854                cvtcl
                0x1001c888                movp
                0x1001c8d0                headp
                0x1001c8e8                tail
                0x1001c8fc                self
                0x1001c940                movmp
                0x1001c97c                headmp
                0x1001c994                slicela
                0x1001caa4                movtmp
                0x1001cad8                new
                0x1001cb00                slicea
                0x1001cbb4                newz
                0x1001cbdc                mnewz
                0x1001cc18                frame
                0x1001cc68                mframe
                0x1001cd64                iraise
                0x1001cdb8                spawn
                0x1001cddc                mspawn
                0x1001ce48                ret
                0x1001ceb4                mcall
                0x1001cf88                iload
                0x1001d040                alt
                0x1001d054                nbalt
                0x1001d05e                acheck
                0x1001d090                newa
                0x1001d0f0                newaz
                0x1001d15c                cnewc
                0x1001d1f8                newc
                0x1001d244                newcl
                0x1001d258                newcb
                0x1001d26c                newcw
                0x1001d280                newcf
                0x1001d294                newcp
                0x1001d2a8                newcm
                0x1001d2f8                newcmp
                0x1001d318                cqadd
                0x1001d354                cqdel
                0x1001d36c                isend
                0x1001d418                irecv
                0x1001d4e4                cqdelp
                0x1001d51a                csendalt
                0x1001d5ac                cons
                0x1001d5fc                consb
                0x1001d614                consw
                0x1001d62c                consl
                0x1001d648                consp
                0x1001d69c                consf
                0x1001d6b8                consm
                0x1001d6d8                consmp
                0x1001d714                destroystack
                0x1001d788                isave
                0x1001d7a4                irestore
                0x1001d7bc                opinit
                0x1001d7e4                xec
 .text          0x1001d864      0x5ec /home/pi/github/inferno-pico/Pico/arm/lib/libinterp.a(das-arm.o)
                0x1001dd20                armclass
                0x1001ddf0                das
 .text          0x1001de50      0x8e0 /home/pi/github/inferno-pico/Pico/arm/lib/libinterp.a(string.o)
                0x1001de50                indc
                0x1001dea0                cvtup
                0x1001deb8                cvtca
                0x1001df2c                lenc
                0x1001df50                string2c
                0x1001dfd8                cvtcw
                0x1001e024                cvtcf
                0x1001e074                newstring
                0x1001e0a4                cvtwc
                0x1001e0d4                cvtlc
                0x1001e104                cvtfc
                0x1001e134                newrunes
                0x1001e17c                slicer
                0x1001e220                slicec
                0x1001e248                c2string
                0x1001e2e2                cvtac
                0x1001e310                stringdup
                0x1001e356                addstring
                0x1001e4ca                addc
                0x1001e4f8                stringcmp
                0x1001e5c4                splitc
                0x1001e5f8                insc
 .text          0x1001e730        0xa /home/pi/github/inferno-pico/Pico/arm/lib/libinterp.a(dlm-Pico.o)
                0x1001e730                newdyncode
                0x1001e734                freedyncode
                0x1001e736                newdyndata
                0x1001e738                freedyndata
 .text          0x1001e73a      0x122 /home/pi/github/inferno-pico/Pico/arm/lib/libmath.a(blas.o)
                0x1001e73a                dot
                0x1001e78e                iamax
                0x1001e7e4                norm1
                0x1001e81c                norm2
 .text          0x1001e85c     0x202c /home/pi/github/inferno-pico/Pico/arm/lib/libmath.a(dtoa.o)
                0x1001f25a                strtod
                0x1001fcc4                freedtoa
                0x1001fcd8                dtoa
 .text          0x10020888       0x62 /home/pi/github/inferno-pico/Pico/arm/lib/libmath.a(fdim.o)
                0x10020888                fdim
                0x100208ae                fmax
                0x100208cc                fmin
 .text          0x100208ea      0x166 /home/pi/github/inferno-pico/Pico/arm/lib/libmath.a(FPcontrol-Pico.o)
                0x100208ea                FPinit
                0x100208fc                getFPstatus
                0x10020930                FPstatus
                0x10020978                getFPcontrol
                0x100209ce                FPcontrol
 .text          0x10020a50      0x5dc /home/pi/github/inferno-pico/Pico/arm/lib/libmath.a(gemm.o)
                0x10020a50                gemm
 .text          0x1002102c      0x314 /home/pi/github/inferno-pico/Pico/arm/lib/libmath.a(gfltconv.o)
                0x1002102c                gfltconv
 .text          0x10021340       0x18 /home/pi/github/inferno-pico/Pico/arm/lib/libmath.a(pow10.o)
                0x10021340                ipow10
 .text          0x10021358      0x410 /home/pi/github/inferno-pico/Pico/arm/lib/libmath.a(e_acos.o)
                0x10021358                __ieee754_acos
 .text          0x10021768      0x120 /home/pi/github/inferno-pico/Pico/arm/lib/libmath.a(e_acosh.o)
                0x10021768                __ieee754_acosh
 .text          0x10021888      0x3d0 /home/pi/github/inferno-pico/Pico/arm/lib/libmath.a(e_asin.o)
                0x10021888                __ieee754_asin
 .text          0x10021c58      0x1dc /home/pi/github/inferno-pico/Pico/arm/lib/libmath.a(e_atan2.o)
                0x10021c58                __ieee754_atan2
 .text          0x10021e34      0x134 /home/pi/github/inferno-pico/Pico/arm/lib/libmath.a(e_atanh.o)
                0x10021e34                __ieee754_atanh
 .text          0x10021f68      0x158 /home/pi/github/inferno-pico/Pico/arm/lib/libmath.a(e_cosh.o)
                0x10021f68                __ieee754_cosh
 .text          0x100220c0      0x2ec /home/pi/github/inferno-pico/Pico/arm/lib/libmath.a(e_exp.o)
                0x100220c0                __ieee754_exp
 .text          0x100223ac      0x2a8 /home/pi/github/inferno-pico/Pico/arm/lib/libmath.a(e_fmod.o)
                0x100223ac                __ieee754_fmod
 .text          0x10022654      0x2f8 /home/pi/github/inferno-pico/Pico/arm/lib/libmath.a(e_hypot.o)
                0x10022654                __ieee754_hypot
 .text          0x1002294c      0xa14 /home/pi/github/inferno-pico/Pico/arm/lib/libmath.a(e_j0.o)
                0x10022cec                __ieee754_j0
                0x10023034                __ieee754_y0
 .text          0x10023360      0x9b0 /home/pi/github/inferno-pico/Pico/arm/lib/libmath.a(e_j1.o)
                0x10023700                __ieee754_j1
                0x100239dc                __ieee754_y1
 .text          0x10023d10      0x714 /home/pi/github/inferno-pico/Pico/arm/lib/libmath.a(e_jn.o)
                0x10023d10                __ieee754_jn
                0x100241f4                __ieee754_yn
 .text          0x10024424      0xc3c /home/pi/github/inferno-pico/Pico/arm/lib/libmath.a(e_lgamma_r.o)
                0x100245cc                __ieee754_lgamma_r
 .text          0x10025060      0x424 /home/pi/github/inferno-pico/Pico/arm/lib/libmath.a(e_log.o)
                0x10025060                __ieee754_log
 .text          0x10025484      0x10c /home/pi/github/inferno-pico/Pico/arm/lib/libmath.a(e_log10.o)
                0x10025484                __ieee754_log10
 .text          0x10025590      0xbd0 /home/pi/github/inferno-pico/Pico/arm/lib/libmath.a(e_pow.o)
                0x10025590                __ieee754_pow
 .text          0x10026160      0x198 /home/pi/github/inferno-pico/Pico/arm/lib/libmath.a(e_remainder.o)
                0x10026160                __ieee754_remainder
 .text          0x100262f8      0x18c /home/pi/github/inferno-pico/Pico/arm/lib/libmath.a(e_sinh.o)
                0x100262f8                __ieee754_sinh
 .text          0x10026484      0x17c /home/pi/github/inferno-pico/Pico/arm/lib/libmath.a(e_sqrt.o)
                0x10026484                __ieee754_sqrt
 .text          0x10026600      0x1c8 /home/pi/github/inferno-pico/Pico/arm/lib/libmath.a(k_cos.o)
                0x10026600                __kernel_cos
 .text          0x100267c8      0x158 /home/pi/github/inferno-pico/Pico/arm/lib/libmath.a(k_sin.o)
                0x100267c8                __kernel_sin
 .text          0x10026920      0xeb4 /home/pi/github/inferno-pico/Pico/arm/lib/libmath.a(s_erf.o)
                0x10026920                erf
                0x10027074                erfc
 .text          0x100277d4       0x16 /home/pi/github/inferno-pico/Pico/arm/lib/libmath.a(s_fabs.o)
                0x100277d4                fabs
 *fill*         0x100277ea        0x2 
 .text          0x100277ec       0x14 /home/pi/github/inferno-pico/Pico/arm/lib/libmath.a(s_finite.o)
                0x100277ec                finite
 .text          0x10027800       0x68 /home/pi/github/inferno-pico/Pico/arm/lib/libmath.a(s_ilogb.o)
                0x10027800                ilogb
 .text          0x10027868      0x188 /home/pi/github/inferno-pico/Pico/arm/lib/libmath.a(s_nextafter.o)
                0x10027868                nextafter
 .text          0x100279f0      0x134 /home/pi/github/inferno-pico/Pico/arm/lib/libmath.a(s_rint.o)
                0x100279f0                dummy
                0x100279f2                rint
 .text          0x10027b24      0x124 /home/pi/github/inferno-pico/Pico/arm/lib/libmath.a(s_scalbn.o)
                0x10027b24                scalbn
 .text          0x10027c48      0x164 /home/pi/github/inferno-pico/Pico/arm/lib/libmath.a(g_fmt.o)
                0x10027c48                g_fmt
 .text          0x10027dac        0xa /home/pi/github/inferno-pico/Pico/arm/lib/libkern.a(abort.o)
                0x10027dac                abort
 .text          0x10027db6       0x14 /home/pi/github/inferno-pico/Pico/arm/lib/libkern.a(abs.o)
                0x10027db6                abs
                0x10027dc0                labs
 .text          0x10027dca       0xd8 /home/pi/github/inferno-pico/Pico/arm/lib/libkern.a(atol.o)
                0x10027dca                atol
                0x10027e9a                atoi
 .text          0x10027ea2       0xec /home/pi/github/inferno-pico/Pico/arm/lib/libkern.a(cleanname.o)
                0x10027ea2                cleanname
 .text          0x10027f8e      0x1d6 /home/pi/github/inferno-pico/Pico/arm/lib/libkern.a(convD2M.o)
                0x10027f8e                sizeD2M
                0x10027fca                convD2M
 .text          0x10028164      0x1e4 /home/pi/github/inferno-pico/Pico/arm/lib/libkern.a(convM2D.o)
                0x10028164                statcheck
                0x100281b8                convM2D
 .text          0x10028348      0x5e0 /home/pi/github/inferno-pico/Pico/arm/lib/libkern.a(convM2S.o)
                0x100283da                convM2S
 .text          0x10028928      0x5a0 /home/pi/github/inferno-pico/Pico/arm/lib/libkern.a(convS2M.o)
                0x100289a8                sizeS2M
                0x10028aa0                convS2M
 .text          0x10028ec8      0xad4 /home/pi/github/inferno-pico/Pico/arm/lib/libkern.a(dofmt.o)
                0x10028ec8                _fmtflush
                0x10028f14                dofmt
                0x1002904a                _fmtpad
                0x10029090                _rfmtpad
                0x100290d8                _fmtcpy
                0x100292a0                _fmtrcpy
                0x10029404                _charfmt
                0x10029422                _runefmt
                0x1002943c                fmtstrcpy
                0x100294a0                _strfmt
                0x100294b0                fmtrunestrcpy
                0x100294f8                _runesfmt
                0x10029508                _percentfmt
                0x10029520                _ifmt
                0x100298a4                _countfmt
                0x100298e2                _flagfmt
                0x1002997c                _badfmt
 .text          0x1002999c      0x620 /home/pi/github/inferno-pico/Pico/arm/lib/libkern.a(fcallfmt.o)
                0x10029b18                fcallfmt
                0x10029f98                dirfmt
 .text          0x10029fbc      0x19c /home/pi/github/inferno-pico/Pico/arm/lib/libkern.a(fmt.o)
                0x10029fbc                fmtinstall
                0x1002a084                _fmtdispatch
 .text          0x1002a158      0x5d0 /home/pi/github/inferno-pico/Pico/arm/lib/libkern.a(fmtquote.o)
                0x1002a484                _quotesetup
                0x1002a5cc                _quotestrfmt
                0x1002a69c                quotestrfmt
                0x1002a6a8                quoterunestrfmt
                0x1002a6b4                quotefmtinstall
                0x1002a6d0                _needsquotes
                0x1002a6fc                _runeneedsquotes
 .text          0x1002a728       0x1c /home/pi/github/inferno-pico/Pico/arm/lib/libkern.a(memchr.o)
                0x1002a728                memchr
 .text          0x1002a744       0x2c /home/pi/github/inferno-pico/Pico/arm/lib/libkern.a(memcmp.o)
                0x1002a744                memcmp
 .text          0x1002a770      0x1f4 /home/pi/github/inferno-pico/Pico/arm/lib/libkern.a(rune.o)
                0x1002a770                chartorune
                0x1002a824                runetochar
                0x1002a8c4                runelen
                0x1002a8d6                runenlen
                0x1002a91e                fullrune
 .text          0x1002a964       0x14 /home/pi/github/inferno-pico/Pico/arm/lib/libkern.a(seprint.o)
                0x1002a964                seprint
 .text          0x1002a978       0x28 /home/pi/github/inferno-pico/Pico/arm/lib/libkern.a(strcmp.o)
                0x1002a978                strcmp
 .text          0x1002a9a0       0x2c /home/pi/github/inferno-pico/Pico/arm/lib/libkern.a(strcpy.o)
                0x1002a9a0                strcpy
 .text          0x1002a9cc       0x1a /home/pi/github/inferno-pico/Pico/arm/lib/libkern.a(strdup.o)
                0x1002a9cc                strdup
 .text          0x1002a9e6       0x24 /home/pi/github/inferno-pico/Pico/arm/lib/libkern.a(strecpy.o)
                0x1002a9e6                strecpy
 .text          0x1002aa0a        0xe /home/pi/github/inferno-pico/Pico/arm/lib/libkern.a(strlen.o)
                0x1002aa0a                strlen
 .text          0x1002aa18       0x34 /home/pi/github/inferno-pico/Pico/arm/lib/libkern.a(strncmp.o)
                0x1002aa18                strncmp
 .text          0x1002aa4c       0x2c /home/pi/github/inferno-pico/Pico/arm/lib/libkern.a(strncpy.o)
                0x1002aa4c                strncpy
 .text          0x1002aa78       0x2a /home/pi/github/inferno-pico/Pico/arm/lib/libkern.a(strrchr.o)
                0x1002aa78                strrchr
 .text          0x1002aaa2       0x40 /home/pi/github/inferno-pico/Pico/arm/lib/libkern.a(strstr.o)
                0x1002aaa2                strstr
 *fill*         0x1002aae2        0x2 
 .text          0x1002aae4       0xfc /home/pi/github/inferno-pico/Pico/arm/lib/libkern.a(strtol.o)
                0x1002aae4                strtol
 .text          0x1002abe0      0x126 /home/pi/github/inferno-pico/Pico/arm/lib/libkern.a(strtoll.o)
                0x1002abe0                strtoll
 .text          0x1002ad06      0x15e /home/pi/github/inferno-pico/Pico/arm/lib/libkern.a(strtoul.o)
                0x1002ad06                strtoul
 .text          0x1002ae64      0x130 /home/pi/github/inferno-pico/Pico/arm/lib/libkern.a(tokenize.o)
                0x1002af08                gettokens
                0x1002af54                tokenize
 .text          0x1002af94       0x2a /home/pi/github/inferno-pico/Pico/arm/lib/libkern.a(utflen.o)
                0x1002af94                utflen
 .text          0x1002afbe       0x3c /home/pi/github/inferno-pico/Pico/arm/lib/libkern.a(utfnlen.o)
                0x1002afbe                utfnlen
 .text          0x1002affa       0x40 /home/pi/github/inferno-pico/Pico/arm/lib/libkern.a(utfrune.o)
                0x1002affa                utfrune
 .text          0x1002b03a       0x36 /home/pi/github/inferno-pico/Pico/arm/lib/libkern.a(vseprint.o)
                0x1002b03a                vseprint
 .text          0x1002b070      0x168 /home/pi/github/inferno-pico/Pico/arm/lib/libkern.a(frexp-arm.o)
                0x1002b070                frexp
                0x1002b0b8                ldexp
                0x1002b120                modf
 .text          0x1002b1d8       0x10 /home/pi/github/inferno-pico/Pico/arm/lib/libkern.a(getfcr-arm.o)
                0x1002b1d8                setfcr
                0x1002b1dc                getfcr
                0x1002b1e0                getfsr
                0x1002b1e4                setfsr
 .text          0x1002b1e8       0x78 /home/pi/github/inferno-pico/Pico/arm/lib/libkern.a(nan-arm.o)
                0x1002b1e8                NaN
                0x1002b1f4                Inf
                0x1002b210                isInf
                0x1002b240                isNaN
 .text          0x1002b260       0x24 /home/pi/github/inferno-pico/Pico/arm/lib/libkern.a(memccpy.o)
                0x1002b260                memccpy
 .text.clock_configure
                0x1002b284       0xfc /home/pi/github/inferno-pico/Pico/arm/lib/libpico.a(clocks.o)
                0x1002b284                clock_configure
 .text.clocks_init
                0x1002b380      0x100 /home/pi/github/inferno-pico/Pico/arm/lib/libpico.a(clocks.o)
                0x1002b380                clocks_init
 .text.clock_get_hz
                0x1002b480        0xc /home/pi/github/inferno-pico/Pico/arm/lib/libpico.a(clocks.o)
                0x1002b480                clock_get_hz
 .text          0x1002b48c       0x28 /home/pi/github/inferno-pico/Pico/arm/lib/libpico.a(double_none.o)
                0x1002b48c                __wrap___aeabi_dcmpun
                0x1002b48c                __wrap___aeabi_ddiv
                0x1002b48c                __wrap_cos
                0x1002b48c                __wrap___aeabi_d2iz
                0x1002b48c                __wrap___aeabi_dmul
                0x1002b48c                __wrap___aeabi_l2d
                0x1002b48c                __wrap_cbrt
                0x1002b48c                __wrap___aeabi_cdcmple
                0x1002b48c                __wrap_log1p
                0x1002b48c                __wrap_atan2
                0x1002b48c                __wrap_fmod
                0x1002b48c                __wrap___aeabi_cdrcmple
                0x1002b48c                __wrap___aeabi_ui2d
                0x1002b48c                __wrap___aeabi_d2ulz
                0x1002b48c                __wrap___aeabi_drsub
                0x1002b48c                __wrap_fma
                0x1002b48c                __wrap_drem
                0x1002b48c                __wrap___aeabi_i2d
                0x1002b48c                __wrap_asin
                0x1002b48c                __wrap_sinh
                0x1002b48c                __wrap_cosh
                0x1002b48c                __wrap_sincos
                0x1002b48c                __wrap_acos
                0x1002b48c                __wrap___aeabi_dcmplt
                0x1002b48c                __wrap___aeabi_dcmpgt
                0x1002b48c                __wrap_trunc
                0x1002b48c                __wrap_pow
                0x1002b48c                __wrap___aeabi_dsub
                0x1002b48c                __wrap___aeabi_ul2d
                0x1002b48c                __wrap_sqrt
                0x1002b48c                __wrap_tan
                0x1002b48c                __wrap_copysign
                0x1002b48c                __wrap___aeabi_dcmpge
                0x1002b48c                __wrap___aeabi_d2lz
                0x1002b48c                __wrap_log10
                0x1002b48c                __wrap_atanh
                0x1002b48c                __wrap_remainder
                0x1002b48c                __wrap___aeabi_dadd
                0x1002b48c                __wrap___aeabi_dcmpeq
                0x1002b48c                __wrap_exp10
                0x1002b48c                __wrap___aeabi_dcmple
                0x1002b48c                __wrap_expm1
                0x1002b48c                __wrap_powint
                0x1002b48c                __wrap_remquo
                0x1002b48c                __wrap_hypot
                0x1002b48c                __wrap_tanh
                0x1002b48c                __wrap___aeabi_cdcmpeq
                0x1002b48c                __wrap_floor
                0x1002b48c                __wrap_ceil
                0x1002b48c                __wrap_sin
                0x1002b48c                __wrap_atan
                0x1002b48c                __wrap___aeabi_d2uiz
                0x1002b48c                __wrap_acosh
                0x1002b48c                __wrap_round
                0x1002b48c                __wrap_ldexp
                0x1002b48c                __wrap_asinh
                0x1002b48c                __wrap_exp2
                0x1002b48c                __wrap_log2
                0x1002b48c                __wrap_exp
                0x1002b48c                __wrap_log
                0x1002b48c                __wrap___aeabi_d2f
 .text          0x1002b4b4       0x28 /home/pi/github/inferno-pico/Pico/arm/lib/libpico.a(float_none.o)
                0x1002b4b4                __wrap_powf
                0x1002b4b4                __wrap_cosf
                0x1002b4b4                __wrap_sinhf
                0x1002b4b4                __wrap_dremf
                0x1002b4b4                __wrap___aeabi_fadd
                0x1002b4b4                __wrap_remainderf
                0x1002b4b4                __wrap___aeabi_ul2f
                0x1002b4b4                __wrap_sinf
                0x1002b4b4                __wrap___aeabi_cfcmpeq
                0x1002b4b4                __wrap_sqrtf
                0x1002b4b4                __wrap_coshf
                0x1002b4b4                __wrap_logf
                0x1002b4b4                __wrap___aeabi_fsub
                0x1002b4b4                __wrap_exp10f
                0x1002b4b4                __wrap_expf
                0x1002b4b4                __wrap___aeabi_cfrcmple
                0x1002b4b4                __wrap_asinf
                0x1002b4b4                __wrap_sincosf
                0x1002b4b4                __wrap_log2f
                0x1002b4b4                __wrap_tanhf
                0x1002b4b4                __wrap_hypotf
                0x1002b4b4                __wrap_fmaf
                0x1002b4b4                __wrap_log1pf
                0x1002b4b4                __wrap_ceilf
                0x1002b4b4                __wrap___aeabi_fmul
                0x1002b4b4                __wrap_tanf
                0x1002b4b4                __wrap___aeabi_fcmple
                0x1002b4b4                __wrap_ldexpf
                0x1002b4b4                __wrap___aeabi_fcmpeq
                0x1002b4b4                __wrap_remquof
                0x1002b4b4                __wrap_powintf
                0x1002b4b4                __wrap___aeabi_ui2f
                0x1002b4b4                __wrap_acoshf
                0x1002b4b4                __wrap___aeabi_l2f
                0x1002b4b4                __wrap_floorf
                0x1002b4b4                __wrap_expm1f
                0x1002b4b4                __wrap___aeabi_frsub
                0x1002b4b4                __wrap___aeabi_f2iz
                0x1002b4b4                __wrap___aeabi_f2uiz
                0x1002b4b4                __wrap___aeabi_fcmpun
                0x1002b4b4                __wrap___aeabi_fcmpgt
                0x1002b4b4                __wrap___aeabi_fcmplt
                0x1002b4b4                __wrap___aeabi_f2d
                0x1002b4b4                __wrap___aeabi_i2f
                0x1002b4b4                __wrap_exp2f
                0x1002b4b4                __wrap_atanhf
                0x1002b4b4                __wrap_acosf
                0x1002b4b4                __wrap_atan2f
                0x1002b4b4                __wrap___aeabi_fdiv
                0x1002b4b4                __wrap_atanf
                0x1002b4b4                __wrap_log10f
                0x1002b4b4                __wrap___aeabi_cfcmple
                0x1002b4b4                __wrap_copysignf
                0x1002b4b4                __wrap_fmodf
                0x1002b4b4                __wrap_cbrtf
                0x1002b4b4                __wrap___aeabi_f2lz
                0x1002b4b4                __wrap_roundf
                0x1002b4b4                __wrap___aeabi_fcmpge
                0x1002b4b4                __wrap___aeabi_f2ulz
                0x1002b4b4                __wrap_asinhf
                0x1002b4b4                __wrap_truncf
 .text.gpio_set_function
                0x1002b4dc       0x30 /home/pi/github/inferno-pico/Pico/arm/lib/libpico.a(gpio.o)
                0x1002b4dc                gpio_set_function
 .text.set_raw_irq_handler_and_unlock
                0x1002b50c       0x28 /home/pi/github/inferno-pico/Pico/arm/lib/libpico.a(irq.o)
 .text.make_branch
                0x1002b534       0x34 /home/pi/github/inferno-pico/Pico/arm/lib/libpico.a(irq.o)
 .text.insert_branch_and_link
                0x1002b568       0x40 /home/pi/github/inferno-pico/Pico/arm/lib/libpico.a(irq.o)
 .text.irq_is_enabled
                0x1002b5a8       0x18 /home/pi/github/inferno-pico/Pico/arm/lib/libpico.a(irq.o)
                0x1002b5a8                irq_is_enabled
 .text.irq_set_mask_enabled
                0x1002b5c0       0x20 /home/pi/github/inferno-pico/Pico/arm/lib/libpico.a(irq.o)
                0x1002b5c0                irq_set_mask_enabled
 .text.irq_set_enabled
                0x1002b5e0        0xe /home/pi/github/inferno-pico/Pico/arm/lib/libpico.a(irq.o)
                0x1002b5e0                irq_set_enabled
 *fill*         0x1002b5ee        0x2 
 .text.irq_get_vtable_handler
                0x1002b5f0       0x10 /home/pi/github/inferno-pico/Pico/arm/lib/libpico.a(irq.o)
                0x1002b5f0                irq_get_vtable_handler
 .text.irq_set_exclusive_handler
                0x1002b600       0x54 /home/pi/github/inferno-pico/Pico/arm/lib/libpico.a(irq.o)
                0x1002b600                irq_set_exclusive_handler
 .text.irq_remove_handler
                0x1002b654      0x1b4 /home/pi/github/inferno-pico/Pico/arm/lib/libpico.a(irq.o)
                0x1002b654                irq_remove_handler
 .text.irq_add_tail_to_free_list
                0x1002b808       0xf0 /home/pi/github/inferno-pico/Pico/arm/lib/libpico.a(irq.o)
                0x1002b808                irq_add_tail_to_free_list
 .text.irq_init_priorities
                0x1002b8f8       0x1c /home/pi/github/inferno-pico/Pico/arm/lib/libpico.a(irq.o)
                0x1002b8f8                irq_init_priorities
 .text          0x1002b914       0x10 /home/pi/github/inferno-pico/Pico/arm/lib/libpico.a(mem_ops_aeabi.o)
                0x1002b914                __aeabi_mem_init
 .text.memset   0x1002b924        0xc /home/pi/github/inferno-pico/Pico/arm/lib/libpico.a(mem_ops_aeabi.o)
                0x1002b924                __wrap_memset
 .text.memcpy   0x1002b930        0xc /home/pi/github/inferno-pico/Pico/arm/lib/libpico.a(mem_ops_aeabi.o)
                0x1002b930                __wrap___aeabi_memcpy
                0x1002b930                __wrap_memcpy
 .text.__wrap___aeabi_idiv
                0x1002b93c       0x50 /home/pi/github/inferno-pico/Pico/arm/lib/libpico.a(pico_divider.o)
                0x1002b93c                __wrap___aeabi_idivmod
                0x1002b93c                divmod_s32s32
                0x1002b93c                div_s32s32
                0x1002b93c                __wrap___aeabi_idiv
                0x1002b944                divmod_s32s32_unsafe
                0x1002b970                divmod_s32s32_savestate
 .text.__wrap___aeabi_uidiv
                0x1002b98c       0x4c /home/pi/github/inferno-pico/Pico/arm/lib/libpico.a(pico_divider.o)
                0x1002b98c                __wrap___aeabi_uidiv
                0x1002b98c                __wrap___aeabi_uidivmod
                0x1002b98c                div_u32u32
                0x1002b98c                divmod_u32u32
                0x1002b994                divmod_u32u32_unsafe
                0x1002b9bc                divmod_u32u32_savestate
 .text.__wrap___aeabi_ldiv
                0x1002b9d8      0x434 /home/pi/github/inferno-pico/Pico/arm/lib/libpico.a(pico_divider.o)
                0x1002b9d8                div_s64s64
                0x1002b9d8                divmod_s64s64
                0x1002b9d8                __wrap___aeabi_ldivmod
                0x1002ba10                div_u64u64
                0x1002ba10                divmod_u64u64
                0x1002ba10                __wrap___aeabi_uldivmod
                0x1002ba20                divmod_u64u64_savestate
                0x1002ba48                divmod_s64s64_unsafe
                0x1002bad0                divmod_u64u64_unsafe
 .text.__wrap_malloc
                0x1002be0c       0x24 /home/pi/github/inferno-pico/Pico/arm/lib/libpico.a(pico_malloc.o)
                0x1002be0c                __wrap_malloc
 .text.__wrap_free
                0x1002be30        0x8 /home/pi/github/inferno-pico/Pico/arm/lib/libpico.a(pico_malloc.o)
                0x1002be30                __wrap_free
 .text.running_on_fpga
                0x1002be38       0x14 /home/pi/github/inferno-pico/Pico/arm/lib/libpico.a(platform.o)
                0x1002be38                running_on_fpga
 .text.pll_init
                0x1002be4c      0x118 /home/pi/github/inferno-pico/Pico/arm/lib/libpico.a(pll.o)
                0x1002be4c                pll_init
 .text._exit    0x1002bf64        0x4 /home/pi/github/inferno-pico/Pico/arm/lib/libpico.a(runtime.o)
                0x1002bf64                _exit
 .text.exit     0x1002bf68        0x6 /home/pi/github/inferno-pico/Pico/arm/lib/libpico.a(runtime.o)
                0x1002bf68                exit
 *fill*         0x1002bf6e        0x2 
 .text.__assert_func
                0x1002bf70       0x3c /home/pi/github/inferno-pico/Pico/arm/lib/libpico.a(runtime.o)
                0x1002bf70                __assert_func
 .text.runtime_init
                0x1002bfac       0xf8 /home/pi/github/inferno-pico/Pico/arm/lib/libpico.a(runtime.o)
                0x1002bfac                runtime_init
 .text.panic    0x1002c0a4       0x30 /home/pi/github/inferno-pico/Pico/arm/lib/libpico.a(runtime.o)
                0x1002c0a4                panic
 .text.stdio_out_chars_no_crlf
                0x1002c0d4        0xe /home/pi/github/inferno-pico/Pico/arm/lib/libpico.a(stdio.o)
 *fill*         0x1002c0e2        0x2 
 .text.stdio_out_chars_crlf
                0x1002c0e4       0x80 /home/pi/github/inferno-pico/Pico/arm/lib/libpico.a(stdio.o)
 .text.stdio_stack_buffer_flush
                0x1002c164       0x44 /home/pi/github/inferno-pico/Pico/arm/lib/libpico.a(stdio.o)
 .text.stdio_buffered_printer
                0x1002c1a8       0x20 /home/pi/github/inferno-pico/Pico/arm/lib/libpico.a(stdio.o)
 .text.stdout_serialize_begin
                0x1002c1c8       0x30 /home/pi/github/inferno-pico/Pico/arm/lib/libpico.a(stdio.o)
                0x1002c1c8                stdout_serialize_begin
 .text.stdout_serialize_end
                0x1002c1f8       0x10 /home/pi/github/inferno-pico/Pico/arm/lib/libpico.a(stdio.o)
                0x1002c1f8                stdout_serialize_end
 .text.stdio_put_string
                0x1002c208       0x94 /home/pi/github/inferno-pico/Pico/arm/lib/libpico.a(stdio.o)
 .text.stdio_set_driver_enabled
                0x1002c29c       0x38 /home/pi/github/inferno-pico/Pico/arm/lib/libpico.a(stdio.o)
                0x1002c29c                stdio_set_driver_enabled
 .text.stdio_flush
                0x1002c2d4       0x20 /home/pi/github/inferno-pico/Pico/arm/lib/libpico.a(stdio.o)
                0x1002c2d4                stdio_flush
 .text.__wrap_puts
                0x1002c2f4       0x1e /home/pi/github/inferno-pico/Pico/arm/lib/libpico.a(stdio.o)
                0x1002c2f4                __wrap_puts
 *fill*         0x1002c312        0x2 
 .text.__wrap_vprintf
                0x1002c314       0x44 /home/pi/github/inferno-pico/Pico/arm/lib/libpico.a(stdio.o)
                0x1002c314                __wrap_vprintf
 .text.__wrap_printf
                0x1002c358       0x18 /home/pi/github/inferno-pico/Pico/arm/lib/libpico.a(stdio.o)
                0x1002c358                __wrap_printf
 .text.stdio_init_all
                0x1002c370        0x8 /home/pi/github/inferno-pico/Pico/arm/lib/libpico.a(stdio.o)
                0x1002c370                stdio_init_all
 .text.stdio_uart_out_chars
                0x1002c378       0x70 /home/pi/github/inferno-pico/Pico/arm/lib/libpico.a(stdio_uart.o)
 .text.stdio_uart_in_chars
                0x1002c3e8       0x50 /home/pi/github/inferno-pico/Pico/arm/lib/libpico.a(stdio_uart.o)
                0x1002c3e8                stdio_uart_in_chars
 .text.stdio_uart_init_full
                0x1002c438       0x3c /home/pi/github/inferno-pico/Pico/arm/lib/libpico.a(stdio_uart.o)
                0x1002c438                stdio_uart_init_full
 .text.stdio_uart_init
                0x1002c474       0x28 /home/pi/github/inferno-pico/Pico/arm/lib/libpico.a(stdio_uart.o)
                0x1002c474                stdio_uart_init
 .text.spin_locks_reset
                0x1002c49c       0x20 /home/pi/github/inferno-pico/Pico/arm/lib/libpico.a(sync.o)
                0x1002c49c                spin_locks_reset
 .text.next_striped_spin_lock_num
                0x1002c4bc       0x1c /home/pi/github/inferno-pico/Pico/arm/lib/libpico.a(sync.o)
                0x1002c4bc                next_striped_spin_lock_num
 .text.alarm_pool_post_alloc_init
                0x1002c4d8       0x40 /home/pi/github/inferno-pico/Pico/arm/lib/libpico.a(time.o)
 .text.sleep_until_callback
                0x1002c518       0x30 /home/pi/github/inferno-pico/Pico/arm/lib/libpico.a(time.o)
 .text.timer_pool_entry_comparator
                0x1002c548       0x7c /home/pi/github/inferno-pico/Pico/arm/lib/libpico.a(time.o)
                0x1002c548                timer_pool_entry_comparator
 .text.ph_add_child_node
                0x1002c5c4       0xa4 /home/pi/github/inferno-pico/Pico/arm/lib/libpico.a(time.o)
 .text.ph_merge_nodes
                0x1002c668       0x3a /home/pi/github/inferno-pico/Pico/arm/lib/libpico.a(time.o)
 *fill*         0x1002c6a2        0x2 
 .text.add_alarm_under_lock
                0x1002c6a4      0x180 /home/pi/github/inferno-pico/Pico/arm/lib/libpico.a(time.o)
 .text.alarm_pool_alarm_callback
                0x1002c824      0x344 /home/pi/github/inferno-pico/Pico/arm/lib/libpico.a(time.o)
 .text.alarm_pool_init_default
                0x1002cb68       0x38 /home/pi/github/inferno-pico/Pico/arm/lib/libpico.a(time.o)
                0x1002cb68                alarm_pool_init_default
 .text.alarm_pool_get_default
                0x1002cba0       0x2c /home/pi/github/inferno-pico/Pico/arm/lib/libpico.a(time.o)
                0x1002cba0                alarm_pool_get_default
 .text.alarm_pool_add_alarm_at
                0x1002cbcc      0x168 /home/pi/github/inferno-pico/Pico/arm/lib/libpico.a(time.o)
                0x1002cbcc                alarm_pool_add_alarm_at
 .text.sleep_until
                0x1002cd34       0xfc /home/pi/github/inferno-pico/Pico/arm/lib/libpico.a(time.o)
                0x1002cd34                sleep_until
 .text.sleep_us
                0x1002ce30       0x54 /home/pi/github/inferno-pico/Pico/arm/lib/libpico.a(time.o)
                0x1002ce30                sleep_us
 .text.sleep_ms
                0x1002ce84       0x14 /home/pi/github/inferno-pico/Pico/arm/lib/libpico.a(time.o)
                0x1002ce84                sleep_ms
 .text.hardware_alarm_irq_handler
                0x1002ce98       0x8c /home/pi/github/inferno-pico/Pico/arm/lib/libpico.a(timer.o)
 .text.hardware_alarm_claim
                0x1002cf24       0x18 /home/pi/github/inferno-pico/Pico/arm/lib/libpico.a(timer.o)
                0x1002cf24                hardware_alarm_claim
 .text.time_us_64
                0x1002cf3c       0x18 /home/pi/github/inferno-pico/Pico/arm/lib/libpico.a(timer.o)
                0x1002cf3c                time_us_64
 .text.busy_wait_until
                0x1002cf54       0x28 /home/pi/github/inferno-pico/Pico/arm/lib/libpico.a(timer.o)
                0x1002cf54                busy_wait_until
 .text.hardware_alarm_set_callback
                0x1002cf7c       0x90 /home/pi/github/inferno-pico/Pico/arm/lib/libpico.a(timer.o)
                0x1002cf7c                hardware_alarm_set_callback
 .text.hardware_alarm_set_target
                0x1002d00c       0xe8 /home/pi/github/inferno-pico/Pico/arm/lib/libpico.a(timer.o)
                0x1002d00c                hardware_alarm_set_target
 .text.hardware_alarm_cancel
                0x1002d0f4       0x40 /home/pi/github/inferno-pico/Pico/arm/lib/libpico.a(timer.o)
                0x1002d0f4                hardware_alarm_cancel
 .text.uart_set_baudrate
                0x1002d134       0x5c /home/pi/github/inferno-pico/Pico/arm/lib/libpico.a(uart.o)
                0x1002d134                uart_set_baudrate
 .text.uart_set_translate_crlf
                0x1002d190       0x28 /home/pi/github/inferno-pico/Pico/arm/lib/libpico.a(uart.o)
                0x1002d190                uart_set_translate_crlf
 .text.uart_init
                0x1002d1b8       0x84 /home/pi/github/inferno-pico/Pico/arm/lib/libpico.a(uart.o)
                0x1002d1b8                uart_init
 .text._retrieve_unique_id_on_boot
                0x1002d23c       0x10 /home/pi/github/inferno-pico/Pico/arm/lib/libpico.a(unique_id.o)
 .text.pico_get_unique_board_id
                0x1002d24c       0x10 /home/pi/github/inferno-pico/Pico/arm/lib/libpico.a(unique_id.o)
                0x1002d24c                pico_get_unique_board_id
 .text.watchdog_start_tick
                0x1002d25c       0x10 /home/pi/github/inferno-pico/Pico/arm/lib/libpico.a(watchdog.o)
                0x1002d25c                watchdog_start_tick
 .text.xosc_init
                0x1002d26c       0x28 /home/pi/github/inferno-pico/Pico/arm/lib/libpico.a(xosc.o)
                0x1002d26c                xosc_init
 .text.__aeabi_lmul
                0x1002d294       0x32 /home/pi/github/inferno-pico/Pico/arm/lib/libpico.a(pico_int64_ops_aeabi.o)
                0x1002d294                __wrap___aeabi_lmul
 .text.rom_func_lookup
                0x1002d2c6       0x10 /home/pi/github/inferno-pico/Pico/arm/lib/libpico.a(bootrom.o)
                0x1002d2c6                rom_func_lookup
 .text.rom_funcs_lookup
                0x1002d2d6       0x36 /home/pi/github/inferno-pico/Pico/arm/lib/libpico.a(bootrom.o)
                0x1002d2d6                rom_funcs_lookup
 .text.hw_claim_lock
                0x1002d30c       0x18 /home/pi/github/inferno-pico/Pico/arm/lib/libpico.a(claim.o)
                0x1002d30c                hw_claim_lock
 .text.hw_claim_unlock
                0x1002d324       0x14 /home/pi/github/inferno-pico/Pico/arm/lib/libpico.a(claim.o)
                0x1002d324                hw_claim_unlock
 .text.hw_claim_or_assert
                0x1002d338       0x32 /home/pi/github/inferno-pico/Pico/arm/lib/libpico.a(claim.o)
                0x1002d338                hw_claim_or_assert
 .text.flash_get_unique_id
                0x1002d36a       0x40 /home/pi/github/inferno-pico/Pico/arm/lib/libpico.a(flash.o)
                0x1002d36a                flash_get_unique_id
 *fill*         0x1002d3aa        0x2 
 .text.lock_init
                0x1002d3ac       0x10 /home/pi/github/inferno-pico/Pico/arm/lib/libpico.a(lock_core.o)
                0x1002d3ac                lock_init
 .text.mutex_init
                0x1002d3bc       0x1a /home/pi/github/inferno-pico/Pico/arm/lib/libpico.a(mutex.o)
                0x1002d3bc                mutex_init
 .text.recursive_mutex_init
                0x1002d3d6       0x1e /home/pi/github/inferno-pico/Pico/arm/lib/libpico.a(mutex.o)
                0x1002d3d6                recursive_mutex_init
 .text.ph_add_child_node
                0x1002d3f4       0xa4 /home/pi/github/inferno-pico/Pico/arm/lib/libpico.a(pheap.o)
 .text.ph_merge_nodes
                0x1002d498       0x3a /home/pi/github/inferno-pico/Pico/arm/lib/libpico.a(pheap.o)
 *fill*         0x1002d4d2        0x2 
 .text.ph_clear
                0x1002d4d4       0x70 /home/pi/github/inferno-pico/Pico/arm/lib/libpico.a(pheap.o)
                0x1002d4d4                ph_clear
 .text.ph_post_alloc_init
                0x1002d544        0xe /home/pi/github/inferno-pico/Pico/arm/lib/libpico.a(pheap.o)
                0x1002d544                ph_post_alloc_init
 *fill*         0x1002d552        0x2 
 .text.ph_merge_two_pass
                0x1002d554       0xac /home/pi/github/inferno-pico/Pico/arm/lib/libpico.a(pheap.o)
                0x1002d554                ph_merge_two_pass
 .text.ph_remove_any_head
                0x1002d600      0x108 /home/pi/github/inferno-pico/Pico/arm/lib/libpico.a(pheap.o)
 .text.ph_remove_head
                0x1002d708       0x14 /home/pi/github/inferno-pico/Pico/arm/lib/libpico.a(pheap.o)
                0x1002d708                ph_remove_head
 .text.ph_remove_and_free_node
                0x1002d71c       0xf8 /home/pi/github/inferno-pico/Pico/arm/lib/libpico.a(pheap.o)
                0x1002d71c                ph_remove_and_free_node
 .text._out_null
                0x1002d814        0x2 /home/pi/github/inferno-pico/Pico/arm/lib/libpico.a(printf.o)
 .text._out_fct
                0x1002d816        0xe /home/pi/github/inferno-pico/Pico/arm/lib/libpico.a(printf.o)
 .text._atoi    0x1002d824       0x24 /home/pi/github/inferno-pico/Pico/arm/lib/libpico.a(printf.o)
 .text._out_rev
                0x1002d848       0x8c /home/pi/github/inferno-pico/Pico/arm/lib/libpico.a(printf.o)
 .text._ntoa_format
                0x1002d8d4      0x112 /home/pi/github/inferno-pico/Pico/arm/lib/libpico.a(printf.o)
 .text._ntoa_long
                0x1002d9e6       0x9e /home/pi/github/inferno-pico/Pico/arm/lib/libpico.a(printf.o)
 .text._ntoa_long_long
                0x1002da84       0xe2 /home/pi/github/inferno-pico/Pico/arm/lib/libpico.a(printf.o)
 *fill*         0x1002db66        0x2 
 .text._etoa    0x1002db68      0x424 /home/pi/github/inferno-pico/Pico/arm/lib/libpico.a(printf.o)
 .text._ftoa    0x1002df8c      0x340 /home/pi/github/inferno-pico/Pico/arm/lib/libpico.a(printf.o)
 .text._vsnprintf
                0x1002e2cc      0x640 /home/pi/github/inferno-pico/Pico/arm/lib/libpico.a(printf.o)
 .text.vfctprintf
                0x1002e90c       0x20 /home/pi/github/inferno-pico/Pico/arm/lib/libpico.a(printf.o)
                0x1002e90c                vfctprintf
 .text          0x1002e92c       0x9c /usr/lib/gcc/arm-none-eabi/7.3.1/../../../arm-none-eabi/lib/thumb/v6-m/libg.a(lib_a-memmove.o)
                0x1002e92c                memmove
 .text          0x1002e9c8       0xd4 /usr/lib/gcc/arm-none-eabi/7.3.1/../../../arm-none-eabi/lib/thumb/v6-m/libg.a(lib_a-strchr.o)
                0x1002e9c8                strchr
 *(.fini)
 .fini          0x1002ea9c        0x4 /usr/lib/gcc/arm-none-eabi/7.3.1/thumb/v6-m/crti.o
                0x1002ea9c                _fini
 .fini.__stub   0x1002eaa0       0x60 linker stubs
 *crtbegin.o(.ctors)
 *crtbegin?.o(.ctors)
 *(EXCLUDE_FILE(*crtend.o *crtend?.o) .ctors)
 *(SORT_BY_NAME(.ctors.*))
 *(.ctors)
 *crtbegin.o(.dtors)
 *crtbegin?.o(.dtors)
 *(EXCLUDE_FILE(*crtend.o *crtend?.o) .dtors)
 *(SORT_BY_NAME(.dtors.*))
 *(.dtors)
 *(.eh_frame*)
 .eh_frame      0x1002eb00        0x0 /usr/lib/gcc/arm-none-eabi/7.3.1/thumb/v6-m/crtbegin.o
                0x1002eb00                . = ALIGN (0x4)

.glue_7         0x1002eb00        0x0
 .glue_7        0x1002eb00        0x0 linker stubs

.glue_7t        0x1002eb00        0x0
 .glue_7t       0x1002eb00        0x0 linker stubs

.vfp11_veneer   0x1002eb00        0x0
 .vfp11_veneer  0x1002eb00        0x0 linker stubs

.v4_bx          0x1002eb00        0x0
 .v4_bx         0x1002eb00        0x0 linker stubs

.iplt           0x1002eb00        0x0
 .iplt          0x1002eb00        0x0 /usr/lib/gcc/arm-none-eabi/7.3.1/thumb/v6-m/crtbegin.o

.rodata         0x1002eb00     0x5e30
 *(EXCLUDE_FILE(*libm.a: *libc.a:*lib_a-mem*.o *libgcc.a:) .rodata*)
 .rodata.confinit.str1.4
                0x1002eb00       0x2e main.o
 *fill*         0x1002eb2e        0x2 
 .rodata.init0.str1.4
                0x1002eb30       0x50 main.o
                                 0x54 (size before relaxing)
 .rodata.main.str1.4
                0x1002eb80      0x1bb main.o
 *fill*         0x1002ed3b        0x1 
 .rodata.userinit.str1.4
                0x1002ed3c        0x7 main.o
 .rodata.rootgen.str1.4
                0x1002ed43        0x3 devroot.o
 *fill*         0x1002ed43        0x1 
 .rodata.str1.4
                0x1002ed44        0x5 devroot.o
 *fill*         0x1002ed49        0x3 
 .rodata.conswrite
                0x1002ed4c       0x64 devcons.o
 .rodata.consread
                0x1002edb0       0x4c devcons.o
 .rodata._assert.str1.4
                0x1002edfc       0x12 devcons.o
 *fill*         0x1002ee0e        0x2 
 .rodata.consinit.str1.4
                0x1002ee10       0x15 devcons.o
 *fill*         0x1002ee25        0x3 
 .rodata.consread.str1.4
                0x1002ee28       0x20 devcons.o
                                 0x40 (size before relaxing)
 .rodata.conswrite.str1.4
                0x1002ee48       0x2e devcons.o
 .rodata.dbghelp.str1.4
                0x1002ee76       0x2e devcons.o
                                  0x2 (size before relaxing)
 *fill*         0x1002ee76        0x2 
 .rodata.dbgtoggle.str1.4
                0x1002ee78       0x1b devcons.o
 *fill*         0x1002ee93        0x1 
 .rodata.debuginit.str1.4
                0x1002ee94       0x1d devcons.o
 *fill*         0x1002eeb1        0x3 
 .rodata.echo.str1.4
                0x1002eeb4        0x6 devcons.o
 *fill*         0x1002eeba        0x2 
 .rodata.fddump.str1.4
                0x1002eebc        0xc devcons.o
 .rodata.printinit.str1.4
                0x1002eec8        0xa devcons.o
 *fill*         0x1002eed2        0x2 
 .rodata.qpanic.str1.4
                0x1002eed4       0x16 devcons.o
 *fill*         0x1002eeea        0x2 
 .rodata.readnum.str1.4
                0x1002eeec        0x9 devcons.o
 *fill*         0x1002eef5        0x3 
 .rodata.str1.4
                0x1002eef8       0x31 devcons.o
 *fill*         0x1002ef29        0x3 
 .rodata.envcreate.str1.4
                0x1002ef2c        0xe devenv.o
 *fill*         0x1002ef3a        0x2 
 .rodata.envgen.str1.4
                0x1002ef3c        0x3 devenv.o
 *fill*         0x1002ef3f        0x1 
 .rodata.ksetenv.str1.4
                0x1002ef40        0x6 devenv.o
 *fill*         0x1002ef46        0x2 
 .rodata.str1.4
                0x1002ef48        0x4 devenv.o
 .rodata.mntchan.str1.4
                0x1002ef4c       0x14 devmnt.o
 .rodata.mntchk.str1.4
                0x1002ef60       0x5b devmnt.o
 *fill*         0x1002efbb        0x1 
 .rodata.mntralloc.str1.4
                0x1002efbc       0x31 devmnt.o
 *fill*         0x1002efed        0x3 
 .rodata.mntrpcread.str1.4
                0x1002eff0       0x1c devmnt.o
 .rodata.mntversion.str1.4
                0x1002f00c      0x196 devmnt.o
 *fill*         0x1002f1a2        0x2 
 .rodata.mntwalk.str1.4
                0x1002f1a4       0x53 devmnt.o
 *fill*         0x1002f1f7        0x1 
 .rodata.mountio.str1.4
                0x1002f1f8       0x24 devmnt.o
 .rodata.mountmux.str1.4
                0x1002f21c       0x23 devmnt.o
 *fill*         0x1002f23f        0x1 
 .rodata.mountrpc.str1.4
                0x1002f240       0x53 devmnt.o
 *fill*         0x1002f293        0x1 
 .rodata.str1.4
                0x1002f294        0x4 devmnt.o
 .rodata.pipebwrite.str1.4
                0x1002f298       0x23 devpipe.o
 *fill*         0x1002f2bb        0x1 
 .rodata.pipegen.str1.4
                0x1002f2bc        0x3 devpipe.o
 *fill*         0x1002f2bf        0x1 
 .rodata.piperead.str1.4
                0x1002f2c0        0x9 devpipe.o
 *fill*         0x1002f2c9        0x3 
 .rodata.pipestat.str1.4
                0x1002f2cc        0x9 devpipe.o
                                  0xd (size before relaxing)
 *fill*         0x1002f2d5        0x3 
 .rodata.pipewrite.str1.4
                0x1002f2d8        0xa devpipe.o
 .rodata.str1.4
                0x1002f2e2        0xa devpipe.o
                                  0x5 (size before relaxing)
 *fill*         0x1002f2e2        0x2 
 .rodata.progwrite
                0x1002f2e4       0x34 devprog.o
 .rodata.progheap
                0x1002f318       0x8c devprog.o
 .rodata.progopen
                0x1002f3a4       0x34 devprog.o
 .rodata.progread
                0x1002f3d8       0x34 devprog.o
 .rodata.dbgblock.str1.4
                0x1002f40c        0x4 devprog.o
 .rodata.dbgexit.str1.4
                0x1002f410       0x13 devprog.o
 *fill*         0x1002f423        0x1 
 .rodata.dbgstart.str1.4
                0x1002f424        0xe devprog.o
 *fill*         0x1002f432        0x2 
 .rodata.dbgstep.str1.4
                0x1002f434       0x44 devprog.o
 .rodata.dbgxec.str1.4
                0x1002f478       0x24 devprog.o
 .rodata.modstatus.str1.4
                0x1002f49c        0x7 devprog.o
 *fill*         0x1002f4a3        0x1 
 .rodata.progfdprint.str1.4
                0x1002f4a4       0x3f devprog.o
 .rodata.progfds.str1.4
                0x1002f4e3        0x2 devprog.o
 *fill*         0x1002f4e3        0x1 
 .rodata.proggen.str1.4
                0x1002f4e4        0x3 devprog.o
 *fill*         0x1002f4e7        0x1 
 .rodata.progheap.str1.4
                0x1002f4e8       0x47 devprog.o
                                 0x57 (size before relaxing)
 *fill*         0x1002f52f        0x1 
 .rodata.progqidwidth.str1.4
                0x1002f530        0x5 devprog.o
 *fill*         0x1002f535        0x3 
 .rodata.progread.str1.4
                0x1002f538       0x7f devprog.o
                                 0x83 (size before relaxing)
 *fill*         0x1002f5b7        0x1 
 .rodata.progstack.str1.4
                0x1002f5b8       0x23 devprog.o
 *fill*         0x1002f5db        0x1 
 .rodata.progstate
                0x1002f5dc       0x20 devprog.o
 .rodata.progtime.str1.4
                0x1002f5fc        0xd devprog.o
 *fill*         0x1002f609        0x3 
 .rodata.progwrite.str1.4
                0x1002f60c       0x56 devprog.o
 *fill*         0x1002f662        0x2 
 .rodata.str1.4
                0x1002f664       0x90 devprog.o
                                 0x98 (size before relaxing)
 .rodata.srvattach.str1.4
                0x1002f6f4        0x7 devsrv.o
 *fill*         0x1002f6fb        0x1 
 .rodata.srvf2c.str1.4
                0x1002f6fc       0x1f devsrv.o
                                 0x23 (size before relaxing)
 *fill*         0x1002f71b        0x1 
 .rodata.srvgen.str1.4
                0x1002f71c        0x3 devsrv.o
 *fill*         0x1002f71f        0x1 
 .rodata.srvwalk.str1.4
                0x1002f720        0x8 devsrv.o
 .rodata.str1.4
                0x1002f728        0x4 devsrv.o
 .rodata.dupgen.str1.4
                0x1002f72c        0x6 devdup.o
                                  0xf (size before relaxing)
 *fill*         0x1002f732        0x2 
 .rodata.dupread.str1.4
                0x1002f734        0x8 devdup.o
 .rodata.dupwrite.str1.4
                0x1002f73c        0x9 devdup.o
 *fill*         0x1002f745        0x3 
 .rodata.perm.5689
                0x1002f748       0x10 devdup.o
 .rodata.str1.4
                0x1002f758        0x4 devdup.o
 .rodata.__func__.3720
                0x1002f75c       0x15 archpico.o
 .rodata.halt.str1.4
                0x1002f771        0x5 archpico.o
 *fill*         0x1002f771        0x3 
 .rodata.inferno_panic.str1.4
                0x1002f774        0x8 archpico.o
 .rodata.linkproc.str1.4
                0x1002f77c       0x21 archpico.o
 *fill*         0x1002f79d        0x3 
 .rodata.serputs.str1.4
                0x1002f7a0        0x5 archpico.o
 *fill*         0x1002f7a5        0x3 
 .rodata.timerset.str1.4
                0x1002f7a8       0x46 archpico.o
 *fill*         0x1002f7ee        0x2 
 .rodata._auditmemloc.str1.4
                0x1002f7f0       0xd9 alloc.o
 *fill*         0x1002f8c9        0x3 
 .rodata._poolfault.str1.4
                0x1002f8cc       0x19 alloc.o
 *fill*         0x1002f8e5        0x3 
 .rodata.corrupted.str1.4
                0x1002f8e8       0x3d alloc.o
 *fill*         0x1002f925        0x3 
 .rodata.dumpvl.str1.4
                0x1002f928       0x1e alloc.o
                                 0x22 (size before relaxing)
 *fill*         0x1002f946        0x2 
 .rodata.poolalloc.str1.4
                0x1002f948       0x52 alloc.o
 *fill*         0x1002f99a        0x2 
 .rodata.poolcompact.str1.4
                0x1002f99c       0x21 alloc.o
 *fill*         0x1002f9bd        0x3 
 .rodata.poolimmutable.str1.4
                0x1002f9c0        0xa alloc.o
 *fill*         0x1002f9ca        0x2 
 .rodata.poolinit.str1.4
                0x1002f9cc        0xd alloc.o
 *fill*         0x1002f9d9        0x3 
 .rodata.poolread.str1.4
                0x1002f9dc       0x33 alloc.o
 *fill*         0x1002fa0f        0x1 
 .rodata.poolsize.str1.4
                0x1002fa10       0x1f alloc.o
 *fill*         0x1002fa2f        0x1 
 .rodata.poolsummary.str1.4
                0x1002fa30       0x5b alloc.o
 *fill*         0x1002fa8b        0x1 
 .rodata.str1.4
                0x1002fa8c       0x16 alloc.o
 *fill*         0x1002faa2        0x2 
 .rodata.allocb.str1.4
                0x1002faa4        0x7 allocb.o
 *fill*         0x1002faab        0x1 
 .rodata.iallocsummary.str1.4
                0x1002faac       0x12 allocb.o
 *fill*         0x1002fabe        0x2 
 .rodata.namec  0x1002fac0       0x1c chan.o
 .rodata.cclone.str1.4
                0x1002fadc        0xd chan.o
 *fill*         0x1002fae9        0x3 
 .rodata.cclose.str1.4
                0x1002faec        0xc chan.o
 .rodata.channame.str1.4
                0x1002faf8       0x25 chan.o
 .rodata.cleancname.str1.4
                0x1002fb1d        0x2 chan.o
 *fill*         0x1002fb1d        0x3 
 .rodata.cmount.str1.4
                0x1002fb20       0x16 chan.o
 *fill*         0x1002fb36        0x2 
 .rodata.cunmount.str1.4
                0x1002fb38       0x23 chan.o
 *fill*         0x1002fb5b        0x1 
 .rodata.decref.str1.4
                0x1002fb5c       0x12 chan.o
 *fill*         0x1002fb6e        0x2 
 .rodata.findmount.str1.4
                0x1002fb70       0x10 chan.o
 .rodata.kstrcpy.str1.4
                0x1002fb80        0x4 chan.o
 .rodata.kstrdup.str1.4
                0x1002fb84       0x13 chan.o
 *fill*         0x1002fb97        0x1 
 .rodata.namec.str1.4
                0x1002fb98       0xb1 chan.o
                                 0xbe (size before relaxing)
 *fill*         0x1002fc49        0x3 
 .rodata.validname.str1.4
                0x1002fc4c        0x7 chan.o
                                 0x17 (size before relaxing)
 *fill*         0x1002fc53        0x1 
 .rodata.walk.str1.4
                0x1002fc54        0xa chan.o
                                 0x12 (size before relaxing)
 *fill*         0x1002fc5e        0x2 
 .rodata.hzclock.str1.4
                0x1002fc60       0x13 portclock.o
 *fill*         0x1002fc73        0x1 
 .rodata.tadd.str1.4
                0x1002fc74        0x6 portclock.o
                                  0xa (size before relaxing)
 *fill*         0x1002fc7a        0x2 
 .rodata.access.5804
                0x1002fc7c       0x10 dev.o
 .rodata.devattach.str1.4
                0x1002fc8c        0x6 dev.o
                                  0xa (size before relaxing)
 *fill*         0x1002fc92        0x2 
 .rodata.devclone.str1.4
                0x1002fc94       0x1c dev.o
 .rodata.devno.str1.4
                0x1002fcb0        0xf dev.o
 *fill*         0x1002fcbf        0x1 
 .rodata.devstat.str1.4
                0x1002fcc0       0x19 dev.o
                                 0x21 (size before relaxing)
 .rodata.devwalk.str1.4
                0x1002fcd9        0x7 dev.o
 *fill*         0x1002fcd9        0x3 
 .rodata._dial_string_parse.str1.4
                0x1002fcdc        0x4 dial.o
 .rodata.call.str1.4
                0x1002fce0       0x3f dial.o
 *fill*         0x1002fd1f        0x1 
 .rodata.csdial.str1.4
                0x1002fd20       0x17 dial.o
 *fill*         0x1002fd37        0x1 
 .rodata.identtrans.str1.4
                0x1002fd38        0xc dial.o
 .rodata.kannounce.str1.4
                0x1002fd44       0x14 dial.o
 .rodata.kdial.str1.4
                0x1002fd58       0x1e dial.o
 *fill*         0x1002fd76        0x2 
 .rodata.klisten.str1.4
                0x1002fd78        0xa dial.o
 *fill*         0x1002fd82        0x2 
 .rodata.nettrans.str1.4
                0x1002fd84       0x2a dial.o
 *fill*         0x1002fdae        0x2 
 .rodata.exprog
                0x1002fdb0       0x20 dis.o
 .rodata.killprog
                0x1002fdd0       0x20 dis.o
 .rodata.addprog.str1.4
                0x1002fdf0        0xa dis.o
 *fill*         0x1002fdfa        0x2 
 .rodata.addrun.str1.4
                0x1002fdfc       0x27 dis.o
 *fill*         0x1002fe23        0x1 
 .rodata.delprog.str1.4
                0x1002fe24        0x9 dis.o
 *fill*         0x1002fe2d        0x3 
 .rodata.disinit.str1.4
                0x1002fe30       0x98 dis.o
                                 0xa0 (size before relaxing)
 .rodata.exprog.str1.4
                0x1002fec8       0x19 dis.o
 *fill*         0x1002fee1        0x3 
 .rodata.iyield.str1.4
                0x1002fee4       0x39 dis.o
 .rodata.killgrp.str1.4
                0x1002ff1d        0x8 dis.o
 *fill*         0x1002ff1d        0x3 
 .rodata.killprog.str1.4
                0x1002ff20       0x27 dis.o
                                 0x2f (size before relaxing)
 *fill*         0x1002ff47        0x1 
 .rodata.newprog.str1.4
                0x1002ff48       0x10 dis.o
                                 0x14 (size before relaxing)
 .rodata.progexit.str1.4
                0x1002ff58       0x2a dis.o
 *fill*         0x1002ff82        0x2 
 .rodata.pushrun.str1.4
                0x1002ff84        0xf dis.o
 *fill*         0x1002ff93        0x1 
 .rodata.release.str1.4
                0x1002ff94       0x31 dis.o
                                 0x38 (size before relaxing)
 *fill*         0x1002ffc5        0x3 
 .rodata.vmachine.str1.4
                0x1002ffc8       0x36 dis.o
 *fill*         0x1002fffe        0x2 
 .rodata.handler.str1.4
                0x10030000        0xb exception.o
 *fill*         0x1003000b        0x1 
 .rodata.exportproc
                0x1003000c       0x3c exportfs.o
 .rodata.Exauth.str1.4
                0x10030048       0x1c exportfs.o
 .rodata.Exversion.str1.4
                0x10030064       0x24 exportfs.o
 .rodata.Exwalk.str1.4
                0x10030088        0x3 exportfs.o
 .rodata.exflushed.str1.4
                0x10030088       0x21 exportfs.o
 *fill*         0x100300a9        0x3 
 .rodata.exfree.str1.4
                0x100300ac       0x20 exportfs.o
 .rodata.exfreefids.str1.4
                0x100300cc       0x16 exportfs.o
 *fill*         0x100300e2        0x2 
 .rodata.export.str1.4
                0x100300e4        0x9 exportfs.o
 *fill*         0x100300ed        0x3 
 .rodata.exportproc.str1.4
                0x100300f0      0x118 exportfs.o
 .rodata.exreadmsg.str1.4
                0x10030208       0x22 exportfs.o
 *fill*         0x1003022a        0x2 
 .rodata.exreply.str1.4
                0x1003022c       0x3e exportfs.o
 *fill*         0x1003026a        0x2 
 .rodata.exslave.str1.4
                0x1003026c       0x4c exportfs.o
 .rodata.Sys_pctl.str1.4
                0x100302b8        0x2 inferno.o
 .rodata.Sys_sleep.str1.4
                0x100302b8        0x1 inferno.o
 .rodata.str1.4
                0x100302b8      0x3de latin1.o
                                0x47a (size before relaxing)
 *fill*         0x10030696        0x2 
 .rodata.str4.4
                0x10030698      0xb04 latin1.o
                                0xb14 (size before relaxing)
 .rodata.cmderror.str1.4
                0x1003119c        0x5 parse.o
                                 0x12 (size before relaxing)
 *fill*         0x100311a1        0x3 
 .rodata.lookupcmd.str1.4
                0x100311a4       0x30 parse.o
                                 0x34 (size before relaxing)
 .rodata.ncmdfield.str1.4
                0x100311d4        0x5 parse.o
 *fill*         0x100311d9        0x3 
 .rodata.resrcwait.str1.4
                0x100311dc        0xa pgrp.o
                                 0x10 (size before relaxing)
 *fill*         0x100311e6        0x2 
 .rodata.error.str1.4
                0x100311e8       0x31 proc.o
 *fill*         0x10031219        0x3 
 .rodata.exhausted.str1.4
                0x1003121c        0xb proc.o
                                 0x10 (size before relaxing)
 *fill*         0x10031227        0x1 
 .rodata.newproc.str1.4
                0x10031228       0x21 proc.o
 *fill*         0x10031249        0x3 
 .rodata.pexit.str1.4
                0x1003124c        0x6 proc.o
 *fill*         0x10031252        0x2 
 .rodata.procdump.str1.4
                0x10031254       0x49 proc.o
 *fill*         0x1003129d        0x3 
 .rodata.procinit.str1.4
                0x100312a0        0xa proc.o
 *fill*         0x100312aa        0x2 
 .rodata.runproc.str1.4
                0x100312ac       0x14 proc.o
 .rodata.sleep.str1.4
                0x100312c0       0x52 proc.o
 *fill*         0x10031312        0x2 
 .rodata.str1.4
                0x10031314       0x5b proc.o
 *fill*         0x1003136f        0x1 
 .rodata.tsleep.str1.4
                0x10031370       0x21 proc.o
 *fill*         0x10031391        0x3 
 .rodata.wakeup.str1.4
                0x10031394        0xe proc.o
 *fill*         0x100313a2        0x2 
 .rodata.ixsummary.str1.4
                0x100313a4       0x58 qio.o
 .rodata.randomread.str1.4
                0x100313fc        0x8 random.o
 .rodata.dirpackage.str1.4
                0x10031404       0x2c sysfile.o
 .rodata.kbind.str1.4
                0x10031430        0x1 sysfile.o
 .rodata.kpipe.str1.4
                0x10031430        0x3 sysfile.o
 .rodata.kseek.str1.4
                0x10031430       0x23 sysfile.o
 *fill*         0x10031453        0x1 
 .rodata.newfd.str1.4
                0x10031454       0x11 sysfile.o
 *fill*         0x10031465        0x3 
 .rodata.str1.4
                0x10031468        0xe sysfile.o
 .rodata.validstat.str1.4
                0x10031476        0x2 sysfile.o
 *fill*         0x10031476        0x2 
 .rodata.ilock.str1.4
                0x10031478       0x36 taslock.o
 *fill*         0x100314ae        0x2 
 .rodata.iunlock.str1.4
                0x100314b0       0x1e taslock.o
 *fill*         0x100314ce        0x2 
 .rodata.lockloop.str1.4
                0x100314d0       0x45 taslock.o
 *fill*         0x10031515        0x3 
 .rodata.unlock.str1.4
                0x10031518       0x1d taslock.o
 *fill*         0x10031535        0x3 
 .rodata.todfix.str1.4
                0x10031538        0xe tod.o
 *fill*         0x10031546        0x2 
 .rodata.xhole.str1.4
                0x10031548       0x29 xalloc.o
 *fill*         0x10031571        0x3 
 .rodata.xinit.str1.4
                0x10031574        0xe xalloc.o
 *fill*         0x10031582        0x2 
 .rodata.xsummary.str1.4
                0x10031584       0x33 xalloc.o
 *fill*         0x100315b7        0x1 
 .rodata._dumpstack.str1.4
                0x100315b8       0x73 dump.o
                                 0x76 (size before relaxing)
 *fill*         0x1003162b        0x1 
 .rodata.str1.4
                0x1003162c        0x5 pico.o
 *fill*         0x10031631        0x3 
 .rodata.str1.4
                0x10031634       0x13 /home/pi/github/inferno-pico/Pico/arm/lib/libinterp.a(alt.o)
 *fill*         0x10031647        0x1 
 .rodata        0x10031648      0x2d4 /home/pi/github/inferno-pico/Pico/arm/lib/libinterp.a(comp-arm.o)
 .rodata.str1.4
                0x1003191c      0x11d /home/pi/github/inferno-pico/Pico/arm/lib/libinterp.a(comp-arm.o)
 *fill*         0x10031a39        0x3 
 .rodata        0x10031a3c       0x18 /home/pi/github/inferno-pico/Pico/arm/lib/libinterp.a(conv.o)
 .rodata.str1.4
                0x10031a54      0x5a1 /home/pi/github/inferno-pico/Pico/arm/lib/libinterp.a(conv.o)
                                0x5d5 (size before relaxing)
 *fill*         0x10031ff5        0x3 
 .rodata.str1.4
                0x10031ff8        0xe /home/pi/github/inferno-pico/Pico/arm/lib/libinterp.a(gc.o)
 *fill*         0x10032006        0x2 
 .rodata.str1.4
                0x10032008        0x7 /home/pi/github/inferno-pico/Pico/arm/lib/libinterp.a(heap.o)
                                 0x12 (size before relaxing)
 *fill*         0x1003200f        0x1 
 .rodata.str1.4
                0x10032010       0x48 /home/pi/github/inferno-pico/Pico/arm/lib/libinterp.a(link.o)
                                 0x4c (size before relaxing)
 .rodata        0x10032058       0xe0 /home/pi/github/inferno-pico/Pico/arm/lib/libinterp.a(load.o)
 .rodata.str1.4
                0x10032138      0x112 /home/pi/github/inferno-pico/Pico/arm/lib/libinterp.a(load.o)
                                0x11e (size before relaxing)
 *fill*         0x1003224a        0x2 
 .rodata.str1.4
                0x1003224c      0x23f /home/pi/github/inferno-pico/Pico/arm/lib/libinterp.a(math.o)
 *fill*         0x1003248b        0x1 
 .rodata.str1.4
                0x1003248c       0x27 /home/pi/github/inferno-pico/Pico/arm/lib/libinterp.a(readmod.o)
 *fill*         0x100324b3        0x1 
 .rodata        0x100324b4      0x150 /home/pi/github/inferno-pico/Pico/arm/lib/libinterp.a(runt.o)
 .rodata.str1.4
                0x10032604      0x15e /home/pi/github/inferno-pico/Pico/arm/lib/libinterp.a(runt.o)
                                0x192 (size before relaxing)
 *fill*         0x10032762        0x2 
 .rodata.str1.4
                0x10032764       0x61 /home/pi/github/inferno-pico/Pico/arm/lib/libinterp.a(xec.o)
                                 0x75 (size before relaxing)
 *fill*         0x100327c5        0x3 
 .rodata        0x100327c8      0x270 /home/pi/github/inferno-pico/Pico/arm/lib/libinterp.a(das-arm.o)
 .rodata.str1.4
                0x10032a38      0x363 /home/pi/github/inferno-pico/Pico/arm/lib/libinterp.a(das-arm.o)
                                0x38b (size before relaxing)
 *fill*         0x10032d9b        0x1 
 .rodata.str1.4
                0x10032d9c        0xb /home/pi/github/inferno-pico/Pico/arm/lib/libinterp.a(string.o)
                                 0x13 (size before relaxing)
 *fill*         0x10032da7        0x1 
 .rodata        0x10032da8      0x1e8 /home/pi/github/inferno-pico/Pico/arm/lib/libmath.a(dtoa.o)
 .rodata.str1.4
                0x10032f90       0x1c /home/pi/github/inferno-pico/Pico/arm/lib/libmath.a(dtoa.o)
                                 0x1e (size before relaxing)
 *fill*         0x10032fac        0x4 
 .rodata        0x10032fb0       0x30 /home/pi/github/inferno-pico/Pico/arm/lib/libmath.a(e_exp.o)
 .rodata        0x10032fe0       0x10 /home/pi/github/inferno-pico/Pico/arm/lib/libmath.a(e_fmod.o)
 .rodata        0x10032ff0      0x2e0 /home/pi/github/inferno-pico/Pico/arm/lib/libmath.a(e_j0.o)
 .rodata        0x100332d0      0x2e0 /home/pi/github/inferno-pico/Pico/arm/lib/libmath.a(e_j1.o)
 .rodata        0x100335b0       0x30 /home/pi/github/inferno-pico/Pico/arm/lib/libmath.a(e_lgamma_r.o)
 .rodata        0x100335e0       0x30 /home/pi/github/inferno-pico/Pico/arm/lib/libmath.a(e_pow.o)
 .rodata        0x10033610       0x10 /home/pi/github/inferno-pico/Pico/arm/lib/libmath.a(s_rint.o)
 .rodata        0x10033620       0x70 /home/pi/github/inferno-pico/Pico/arm/lib/libkern.a(convM2S.o)
 .rodata        0x10033690       0xe0 /home/pi/github/inferno-pico/Pico/arm/lib/libkern.a(convS2M.o)
 .rodata        0x10033770       0x84 /home/pi/github/inferno-pico/Pico/arm/lib/libkern.a(dofmt.o)
 .rodata.str1.4
                0x100337f4       0x2d /home/pi/github/inferno-pico/Pico/arm/lib/libkern.a(dofmt.o)
 *fill*         0x10033821        0x3 
 .rodata        0x10033824       0x70 /home/pi/github/inferno-pico/Pico/arm/lib/libkern.a(fcallfmt.o)
 .rodata.str1.4
                0x10033894      0x420 /home/pi/github/inferno-pico/Pico/arm/lib/libkern.a(fcallfmt.o)
 .rodata        0x10033cb4       0xe8 /home/pi/github/inferno-pico/Pico/arm/lib/libkern.a(fmt.o)
 .rodata.str1.4
                0x10033d9c        0x6 /home/pi/github/inferno-pico/Pico/arm/lib/libkern.a(fmtquote.o)
 .rodata.__func__.4648
                0x10033d9c       0x10 /home/pi/github/inferno-pico/Pico/arm/lib/libpico.a(clocks.o)
 .rodata.clock_configure.str1.4
                0x10033dac       0x1d /home/pi/github/inferno-pico/Pico/arm/lib/libpico.a(clocks.o)
 *fill*         0x10033dc9        0x3 
 .rodata.__func__.4702
                0x10033dcc       0x1a /home/pi/github/inferno-pico/Pico/arm/lib/libpico.a(irq.o)
 *fill*         0x10033de6        0x2 
 .rodata.__func__.4716
                0x10033de8        0xc /home/pi/github/inferno-pico/Pico/arm/lib/libpico.a(irq.o)
 .rodata.__func__.4724
                0x10033df4       0x17 /home/pi/github/inferno-pico/Pico/arm/lib/libpico.a(irq.o)
 *fill*         0x10033e0b        0x1 
 .rodata.__func__.4728
                0x10033e0c        0xf /home/pi/github/inferno-pico/Pico/arm/lib/libpico.a(irq.o)
 *fill*         0x10033e1b        0x1 
 .rodata.__func__.4767
                0x10033e1c       0x13 /home/pi/github/inferno-pico/Pico/arm/lib/libpico.a(irq.o)
 *fill*         0x10033e2f        0x1 
 .rodata.__func__.4790
                0x10033e30       0x1a /home/pi/github/inferno-pico/Pico/arm/lib/libpico.a(irq.o)
 *fill*         0x10033e4a        0x2 
 .rodata.irq_add_shared_handler.str1.4
                0x10033e4c       0xd9 /home/pi/github/inferno-pico/Pico/arm/lib/libpico.a(irq.o)
 *fill*         0x10033f25        0x3 
 .rodata.irq_add_tail_to_free_list.str1.4
                0x10033f28       0x3a /home/pi/github/inferno-pico/Pico/arm/lib/libpico.a(irq.o)
 *fill*         0x10033f62        0x2 
 .rodata.irq_remove_handler.str1.4
                0x10033f64       0x2a /home/pi/github/inferno-pico/Pico/arm/lib/libpico.a(irq.o)
 *fill*         0x10033f8e        0x2 
 .rodata.irq_set_exclusive_handler.str1.4
                0x10033f90       0x36 /home/pi/github/inferno-pico/Pico/arm/lib/libpico.a(irq.o)
 *fill*         0x10033fc6        0x2 
 .rodata.make_branch.str1.4
                0x10033fc8       0x16 /home/pi/github/inferno-pico/Pico/arm/lib/libpico.a(irq.o)
 *fill*         0x10033fde        0x2 
 .rodata.__wrap_malloc.str1.4
                0x10033fe0        0xe /home/pi/github/inferno-pico/Pico/arm/lib/libpico.a(pico_malloc.o)
 *fill*         0x10033fee        0x2 
 .rodata.__func__.4368
                0x10033ff0        0x9 /home/pi/github/inferno-pico/Pico/arm/lib/libpico.a(pll.o)
 *fill*         0x10033ff9        0x3 
 .rodata.pll_init.str1.4
                0x10033ffc       0xa3 /home/pi/github/inferno-pico/Pico/arm/lib/libpico.a(pll.o)
 *fill*         0x1003409f        0x1 
 .rodata.__assert_func.str1.4
                0x100340a0       0x3f /home/pi/github/inferno-pico/Pico/arm/lib/libpico.a(runtime.o)
                                 0x43 (size before relaxing)
 *fill*         0x100340df        0x1 
 .rodata.__func__.4790
                0x100340e0        0xd /home/pi/github/inferno-pico/Pico/arm/lib/libpico.a(runtime.o)
 *fill*         0x100340ed        0x3 
 .rodata.panic.str1.4
                0x100340f0       0x10 /home/pi/github/inferno-pico/Pico/arm/lib/libpico.a(runtime.o)
                                 0x12 (size before relaxing)
 .rodata.runtime_init.str1.4
                0x10034100       0x2a /home/pi/github/inferno-pico/Pico/arm/lib/libpico.a(runtime.o)
 *fill*         0x1003412a        0x2 
 .rodata.crlf_str.5184
                0x1003412c        0x2 /home/pi/github/inferno-pico/Pico/arm/lib/libpico.a(stdio.o)
 *fill*         0x1003412e        0x2 
 .rodata.__bi_28.4712
                0x10034130        0xc /home/pi/github/inferno-pico/Pico/arm/lib/libpico.a(stdio_uart.o)
 .rodata.__bi_29.4716
                0x1003413c        0x8 /home/pi/github/inferno-pico/Pico/arm/lib/libpico.a(stdio_uart.o)
 .rodata.str1.4
                0x10034144       0x2c /home/pi/github/inferno-pico/Pico/arm/lib/libpico.a(stdio_uart.o)
 .rodata.__func__.4241
                0x10034170       0x15 /home/pi/github/inferno-pico/Pico/arm/lib/libpico.a(time.o)
 *fill*         0x10034185        0x3 
 .rodata.__func__.5158
                0x10034188        0xc /home/pi/github/inferno-pico/Pico/arm/lib/libpico.a(time.o)
 .rodata.__func__.5165
                0x10034194       0x12 /home/pi/github/inferno-pico/Pico/arm/lib/libpico.a(time.o)
 *fill*         0x100341a6        0x2 
 .rodata.__func__.5181
                0x100341a8        0xf /home/pi/github/inferno-pico/Pico/arm/lib/libpico.a(time.o)
 *fill*         0x100341b7        0x1 
 .rodata.__func__.5203
                0x100341b8        0xd /home/pi/github/inferno-pico/Pico/arm/lib/libpico.a(time.o)
 *fill*         0x100341c5        0x3 
 .rodata.__func__.5332
                0x100341c8        0xa /home/pi/github/inferno-pico/Pico/arm/lib/libpico.a(time.o)
 *fill*         0x100341d2        0x2 
 .rodata.__func__.5337
                0x100341d4       0x12 /home/pi/github/inferno-pico/Pico/arm/lib/libpico.a(time.o)
 *fill*         0x100341e6        0x2 
 .rodata.__func__.5352
                0x100341e8       0x17 /home/pi/github/inferno-pico/Pico/arm/lib/libpico.a(time.o)
 *fill*         0x100341ff        0x1 
 .rodata.__func__.5363
                0x10034200       0x15 /home/pi/github/inferno-pico/Pico/arm/lib/libpico.a(time.o)
 *fill*         0x10034215        0x3 
 .rodata.__func__.5380
                0x10034218       0x1a /home/pi/github/inferno-pico/Pico/arm/lib/libpico.a(time.o)
 *fill*         0x10034232        0x2 
 .rodata.add_alarm_under_lock.str1.4
                0x10034234       0x28 /home/pi/github/inferno-pico/Pico/arm/lib/libpico.a(time.o)
                                 0x2b (size before relaxing)
 .rodata.alarm_pool_alarm_callback.str1.4
                0x1003425c       0x82 /home/pi/github/inferno-pico/Pico/arm/lib/libpico.a(time.o)
                                 0xca (size before relaxing)
 *fill*         0x100342de        0x2 
 .rodata.alarm_pool_dump_key.str1.4
                0x100342e0       0x33 /home/pi/github/inferno-pico/Pico/arm/lib/libpico.a(time.o)
 *fill*         0x10034313        0x1 
 .rodata.alarm_pool_get_default.str1.4
                0x10034314       0x21 /home/pi/github/inferno-pico/Pico/arm/lib/libpico.a(time.o)
 *fill*         0x10034335        0x3 
 .rodata.ph_add_child_node.str1.4
                0x10034338       0x76 /home/pi/github/inferno-pico/Pico/arm/lib/libpico.a(time.o)
 *fill*         0x100343ae        0x2 
 .rodata.repeating_timer_callback.str1.4
                0x100343b0       0x1b /home/pi/github/inferno-pico/Pico/arm/lib/libpico.a(time.o)
 *fill*         0x100343cb        0x1 
 .rodata.sleep_until.str1.4
                0x100343cc       0x4d /home/pi/github/inferno-pico/Pico/arm/lib/libpico.a(time.o)
 *fill*         0x10034419        0x3 
 .rodata.__func__.4519
                0x1003441c       0x1a /home/pi/github/inferno-pico/Pico/arm/lib/libpico.a(timer.o)
 *fill*         0x10034436        0x2 
 .rodata.hardware_alarm_claim.str1.4
                0x10034438       0x22 /home/pi/github/inferno-pico/Pico/arm/lib/libpico.a(timer.o)
 *fill*         0x1003445a        0x2 
 .rodata.hardware_alarm_set_target.str1.4
                0x1003445c       0x2c /home/pi/github/inferno-pico/Pico/arm/lib/libpico.a(timer.o)
 .rodata.__func__.4421
                0x10034488        0xd /home/pi/github/inferno-pico/Pico/arm/lib/libpico.a(flash.o)
 *fill*         0x10034495        0x3 
 .rodata.str1.4
                0x10034498      0x11e /home/pi/github/inferno-pico/Pico/arm/lib/libpico.a(flash.o)
 *fill*         0x100345b6        0x2 
 .rodata.__func__.4660
                0x100345b8        0xb /home/pi/github/inferno-pico/Pico/arm/lib/libpico.a(mutex.o)
 *fill*         0x100345c3        0x1 
 .rodata.str1.4
                0x100345c4       0x59 /home/pi/github/inferno-pico/Pico/arm/lib/libpico.a(mutex.o)
                                 0xa1 (size before relaxing)
 *fill*         0x1003461d        0x3 
 .rodata.__func__.4859
                0x10034620        0xc /home/pi/github/inferno-pico/Pico/arm/lib/libpico.a(pheap.o)
 .rodata.__func__.4866
                0x1003462c       0x12 /home/pi/github/inferno-pico/Pico/arm/lib/libpico.a(pheap.o)
 *fill*         0x1003463e        0x2 
 .rodata.__func__.4952
                0x10034640       0x13 /home/pi/github/inferno-pico/Pico/arm/lib/libpico.a(pheap.o)
 *fill*         0x10034653        0x1 
 .rodata.__func__.4970
                0x10034654       0x18 /home/pi/github/inferno-pico/Pico/arm/lib/libpico.a(pheap.o)
 .rodata.ph_add_child_node.str1.4
                0x1003466c       0x76 /home/pi/github/inferno-pico/Pico/arm/lib/libpico.a(pheap.o)
 .rodata.ph_remove_and_free_node.str1.4
                0x1003466c       0x1e /home/pi/github/inferno-pico/Pico/arm/lib/libpico.a(pheap.o)
                                 0x26 (size before relaxing)
 *fill*         0x1003468a        0x2 
 .rodata.ph_remove_any_head.str1.4
                0x1003468c       0x5c /home/pi/github/inferno-pico/Pico/arm/lib/libpico.a(pheap.o)
 .rodata._vsnprintf
                0x100346e8      0x1e0 /home/pi/github/inferno-pico/Pico/arm/lib/libpico.a(printf.o)
 .rodata._ftoa.str1.4
                0x100348c8       0x18 /home/pi/github/inferno-pico/Pico/arm/lib/libpico.a(printf.o)
                                 0x15 (size before relaxing)
 .rodata.pow10.5122
                0x100348e0       0x50 /home/pi/github/inferno-pico/Pico/arm/lib/libpico.a(printf.o)
                0x10034930                . = ALIGN (0x4)
 *(SORT_BY_ALIGNMENT(SORT_BY_NAME(.flashdata*)))
                0x10034930                . = ALIGN (0x4)

.rel.dyn        0x10034930        0x0
 .rel.iplt      0x10034930        0x0 /usr/lib/gcc/arm-none-eabi/7.3.1/thumb/v6-m/crtbegin.o

.ARM.extab
 *(.ARM.extab* .gnu.linkonce.armextab.*)
                0x10034930                __exidx_start = .

.ARM.exidx
 *(.ARM.exidx* .gnu.linkonce.armexidx.*)
                0x10034930                __exidx_end = .
                0x10034930                . = ALIGN (0x4)
                0x10034930                __binary_info_start = .

.binary_info    0x10034930        0x8
 *(.binary_info.keep.*)
 *(.binary_info.*)
 .binary_info.__bi_ptr28
                0x10034930        0x4 /home/pi/github/inferno-pico/Pico/arm/lib/libpico.a(stdio_uart.o)
 .binary_info.__bi_ptr29
                0x10034934        0x4 /home/pi/github/inferno-pico/Pico/arm/lib/libpico.a(stdio_uart.o)
                0x10034938                __binary_info_end = .
                0x10034938                . = ALIGN (0x4)
                0x10034938                __etext = .

.ram_vector_table
                0x20000000       0xc0
 *(.ram_vector_table)
 .ram_vector_table
                0x20000000       0xc0 /home/pi/github/inferno-pico/Pico/arm/lib/libpico.a(runtime.o)
                0x20000000                ram_vector_table

.data           0x200000c0    0x14448 load address 0x10034938
                0x200000c0                __data_start__ = .
 *(vtable)
 *(.time_critical*)
 .time_critical.flash_init_boot2_copyout
                0x200000c0       0x30 /home/pi/github/inferno-pico/Pico/arm/lib/libpico.a(flash.o)
 .time_critical.flash_enable_xip_via_boot2
                0x200000f0       0x10 /home/pi/github/inferno-pico/Pico/arm/lib/libpico.a(flash.o)
 .time_critical.flash_cs_force
                0x20000100       0x28 /home/pi/github/inferno-pico/Pico/arm/lib/libpico.a(flash.o)
 .time_critical.flash_do_cmd
                0x20000128       0xd4 /home/pi/github/inferno-pico/Pico/arm/lib/libpico.a(flash.o)
                0x20000128                flash_do_cmd
 .time_critical.mutex_enter_blocking
                0x200001fc       0x48 /home/pi/github/inferno-pico/Pico/arm/lib/libpico.a(mutex.o)
                0x200001fc                mutex_enter_blocking
 .time_critical.mutex_try_enter
                0x20000244       0x48 /home/pi/github/inferno-pico/Pico/arm/lib/libpico.a(mutex.o)
                0x20000244                mutex_try_enter
 .time_critical.mutex_exit
                0x2000028c       0x4c /home/pi/github/inferno-pico/Pico/arm/lib/libpico.a(mutex.o)
                0x2000028c                mutex_exit
 *(.text*)
 .text          0x200002d8        0x4 /usr/lib/gcc/arm-none-eabi/7.3.1/thumb/v6-m/libgcc.a(_dvmd_tls.o)
                0x200002d8                __aeabi_ldiv0
                0x200002d8                __aeabi_idiv0
 *fill*         0x200002dc        0x4 
 .text.__stub   0x200002e0       0x10 linker stubs
                0x200002f0                . = ALIGN (0x4)
 *(.rodata*)
                0x200002f0                . = ALIGN (0x4)
 *(.data*)
 .data.rootdevtab
                0x200002f0       0x4c devroot.o
                0x200002f0                rootdevtab
 .data.consdevtab
                0x2000033c       0x4c devcons.o
                0x2000033c                consdevtab
 *fill*         0x20000388        0x0 
 .data.consdir  0x20000388      0x4c0 devcons.o
 .data.fmt.6612
                0x20000848        0xa devcons.o
 *fill*         0x20000852        0x2 
 .data.sysctlcmd
                0x20000854       0x48 devcons.o
 .data.envdevtab
                0x2000089c       0x4c devenv.o
                0x2000089c                envdevtab
 .data.Enoversion
                0x200008e8       0x2a devmnt.o
                0x200008e8                Enoversion
 *fill*         0x20000912        0x2 
 .data.Esbadstat
                0x20000914       0x2d devmnt.o
                0x20000914                Esbadstat
 *fill*         0x20000941        0x3 
 .data.mntdevtab
                0x20000944       0x4c devmnt.o
                0x20000944                mntdevtab
 .data.pipedevtab
                0x20000990       0x4c devpipe.o
                0x20000990                pipedevtab
 *fill*         0x200009dc        0x4 
 .data.pipedir  0x200009e0       0xc0 devpipe.o
 .data.Emisalign
                0x20000aa0       0x13 devprog.o
 *fill*         0x20000ab3        0x1 
 .data.progcmd  0x20000ab4       0x3c devprog.o
 .data.progdbgcmd
                0x20000af0       0x60 devprog.o
 .data.progdevtab
                0x20000b50       0x4c devprog.o
                0x20000b50                progdevtab
 *fill*         0x20000b9c        0x4 
 .data.progdir  0x20000ba0      0x300 devprog.o
                0x20000ba0                progdir
 .data.rmap.10093
                0x20000ea0        0x1 devsrv.o
 *fill*         0x20000ea1        0x3 
 .data.srvdevtab
                0x20000ea4       0x4c devsrv.o
                0x20000ea4                srvdevtab
 .data.wmap.10094
                0x20000ef0        0x1 devsrv.o
 *fill*         0x20000ef1        0x3 
 .data.dupdevtab
                0x20000ef4       0x4c devdup.o
                0x20000ef4                dupdevtab
 .data.auditmemloc
                0x20000f40        0x4 alloc.o
                0x20000f40                auditmemloc
 .data.heapmem  0x20000f44        0x4 alloc.o
                0x20000f44                heapmem
 .data.imagmem  0x20000f48        0x4 alloc.o
                0x20000f48                imagmem
 .data.mainmem  0x20000f4c        0x4 alloc.o
                0x20000f4c                mainmem
 .data.poolfault
                0x20000f50        0x4 alloc.o
                0x20000f50                poolfault
 .data.table    0x20000f54      0x2a4 alloc.o
 .data.Edoesnotexist
                0x200011f8        0xf chan.o
 *fill*         0x20001207        0x1 
 .data.isfrog   0x20001208      0x100 chan.o
                0x20001208                isfrog
 .data.changup  0x20001308        0xf dis.o
                0x20001308                changup
 *fill*         0x20001317        0x1 
 .data.keepbroken
                0x20001318        0x4 dis.o
                0x20001318                keepbroken
 .data.Eaccess  0x2000131c       0x28 exportfs.o
 .data.Ecount   0x20001344       0x1c exportfs.o
 .data.Edupfid  0x20001360        0xb exportfs.o
 *fill*         0x2000136b        0x1 
 .data.Emode    0x2000136c       0x1c exportfs.o
 .data.Enofid   0x20001388        0xc exportfs.o
 .data.Eopen    0x20001394       0x11 exportfs.o
 *fill*         0x200013a5        0x3 
 .data.Eseekdir
                0x200013a8       0x1a exportfs.o
 *fill*         0x200013c2        0x2 
 .data.version.6170
                0x200013c4        0x7 exportfs.o
 *fill*         0x200013cb        0x1 
 .data.FileIOmap
                0x200013cc        0x1 inferno.o
                0x200013cc                FileIOmap
 *fill*         0x200013cd        0x3 
 .data.dmap     0x200013d0        0x1 inferno.o
 *fill*         0x200013d1        0x3 
 .data.rmap     0x200013d4        0x1 inferno.o
 *fill*         0x200013d5        0x3 
 .data.wmap     0x200013d8        0x1 inferno.o
 *fill*         0x200013d9        0x3 
 .data.latintab
                0x200013dc      0x4bc latin1.o
                0x200013dc                latintab
 .data.Ebadarg  0x20001898       0x17 proc.o
                0x20001898                Ebadarg
 *fill*         0x200018af        0x1 
 .data.Ebadchar
                0x200018b0       0x1b proc.o
                0x200018b0                Ebadchar
 *fill*         0x200018cb        0x1 
 .data.Ebadctl  0x200018cc       0x27 proc.o
                0x200018cc                Ebadctl
 *fill*         0x200018f3        0x1 
 .data.Ebadfd   0x200018f4       0x1c proc.o
                0x200018f4                Ebadfd
 .data.Ebadsharp
                0x20001910       0x1d proc.o
                0x20001910                Ebadsharp
 *fill*         0x2000192d        0x3 
 .data.Ebadspec
                0x20001930       0x15 proc.o
                0x20001930                Ebadspec
 *fill*         0x20001945        0x3 
 .data.Ebadstat
                0x20001948       0x16 proc.o
                0x20001948                Ebadstat
 *fill*         0x2000195e        0x2 
 .data.Ebadusefd
                0x20001960       0x18 proc.o
                0x20001960                Ebadusefd
 .data.Ecmdargs
                0x20001978       0x1f proc.o
                0x20001978                Ecmdargs
 *fill*         0x20001997        0x1 
 .data.Eexist   0x20001998       0x14 proc.o
                0x20001998                Eexist
 .data.Efilename
                0x200019ac       0x11 proc.o
                0x200019ac                Efilename
 *fill*         0x200019bd        0x3 
 .data.Egreg    0x200019c0        0xe proc.o
                0x200019c0                Egreg
 *fill*         0x200019ce        0x2 
 .data.Ehungup  0x200019d0       0x16 proc.o
                0x200019d0                Ehungup
 *fill*         0x200019e6        0x2 
 .data.Eintr    0x200019e8        0xc proc.o
                0x200019e8                Eintr
 .data.Einuse   0x200019f4       0x20 proc.o
                0x200019f4                Einuse
 .data.Eisdir   0x20001a14       0x14 proc.o
                0x20001a14                Eisdir
 .data.Eisstream
                0x20001a28       0x11 proc.o
                0x20001a28                Eisstream
 *fill*         0x20001a39        0x3 
 .data.Emount   0x20001a3c       0x13 proc.o
                0x20001a3c                Emount
 *fill*         0x20001a4f        0x1 
 .data.Emountrpc
                0x20001a50       0x10 proc.o
                0x20001a50                Emountrpc
 .data.Enegoff  0x20001a60       0x14 proc.o
                0x20001a60                Enegoff
 .data.Enoattach
                0x20001a74       0x18 proc.o
                0x20001a74                Enoattach
 .data.Enocreate
                0x20001a8c       0x23 proc.o
                0x20001a8c                Enocreate
 *fill*         0x20001aaf        0x1 
 .data.Enodev   0x20001ab0       0x10 proc.o
                0x20001ab0                Enodev
 .data.Enofd    0x20001ac0       0x19 proc.o
                0x20001ac0                Enofd
 *fill*         0x20001ad9        0x3 
 .data.Enomem   0x20001adc       0x16 proc.o
                0x20001adc                Enomem
 *fill*         0x20001af2        0x2 
 .data.Enonexist
                0x20001af4       0x14 proc.o
                0x20001af4                Enonexist
 .data.Enotdir  0x20001b08       0x10 proc.o
                0x20001b08                Enotdir
 .data.Eperm    0x20001b18       0x12 proc.o
                0x20001b18                Eperm
 *fill*         0x20001b2a        0x2 
 .data.Eshort   0x20001b2c       0x14 proc.o
                0x20001b2c                Eshort
 .data.Eshortstat
                0x20001b40       0x16 proc.o
                0x20001b40                Eshortstat
 *fill*         0x20001b56        0x2 
 .data.Estopped
                0x20001b58       0x17 proc.o
                0x20001b58                Estopped
 *fill*         0x20001b6f        0x1 
 .data.Ethread  0x20001b70        0xe proc.o
                0x20001b70                Ethread
 *fill*         0x20001b7e        0x2 
 .data.Etoobig  0x20001b80       0x18 proc.o
                0x20001b80                Etoobig
 .data.Etoosmall
                0x20001b98       0x18 proc.o
                0x20001b98                Etoosmall
 .data.Eunion   0x20001bb0        0xd proc.o
                0x20001bb0                Eunion
 *fill*         0x20001bbd        0x3 
 .data.Eunmount
                0x20001bc0        0xc proc.o
                0x20001bc0                Eunmount
 .data.statename
                0x20001bcc       0x28 proc.o
                0x20001bcc                statename
 .data.qiomaxatomic
                0x20001bf4        0x4 qio.o
                0x20001bf4                qiomaxatomic
 .data.names.5780
                0x20001bf8        0x8 sysfile.o
 .data.root13code
                0x20001c00       0xaa pico.root.o
                0x20001c00                root13code
 *fill*         0x20001caa        0x2 
 .data.root13len
                0x20001cac        0x4 pico.root.o
                0x20001cac                root13len
 .data.root14code
                0x20001cb0     0xa150 pico.root.o
                0x20001cb0                root14code
 .data.root14len
                0x2000be00        0x4 pico.root.o
                0x2000be00                root14len
 .data.root16code
                0x2000be04     0x17cd pico.root.o
                0x2000be04                root16code
 *fill*         0x2000d5d1        0x3 
 .data.root16len
                0x2000d5d4        0x4 pico.root.o
                0x2000d5d4                root16len
 .data.root17code
                0x2000d5d8      0xfcf pico.root.o
                0x2000d5d8                root17code
 *fill*         0x2000e5a7        0x1 
 .data.root17len
                0x2000e5a8        0x4 pico.root.o
                0x2000e5a8                root17len
 .data.root18code
                0x2000e5ac      0x2e9 pico.root.o
                0x2000e5ac                root18code
 *fill*         0x2000e895        0x3 
 .data.root18len
                0x2000e898        0x4 pico.root.o
                0x2000e898                root18len
 .data.root19code
                0x2000e89c      0x9c5 pico.root.o
                0x2000e89c                root19code
 *fill*         0x2000f261        0x3 
 .data.root19len
                0x2000f264        0x4 pico.root.o
                0x2000f264                root19len
 .data.root20code
                0x2000f268      0x2c3 pico.root.o
                0x2000f268                root20code
 *fill*         0x2000f52b        0x1 
 .data.root20len
                0x2000f52c        0x4 pico.root.o
                0x2000f52c                root20len
 .data.root21code
                0x2000f530      0x38f pico.root.o
                0x2000f530                root21code
 *fill*         0x2000f8bf        0x1 
 .data.root21len
                0x2000f8c0        0x4 pico.root.o
                0x2000f8c0                root21len
 .data.root22code
                0x2000f8c4     0x15c0 pico.root.o
                0x2000f8c4                root22code
 .data.root22len
                0x20010e84        0x4 pico.root.o
                0x20010e84                root22len
 .data.root23code
                0x20010e88      0x15f pico.root.o
                0x20010e88                root23code
 *fill*         0x20010fe7        0x1 
 .data.root23len
                0x20010fe8        0x4 pico.root.o
                0x20010fe8                root23len
 .data.root24code
                0x20010fec      0x19e pico.root.o
                0x20010fec                root24code
 *fill*         0x2001118a        0x2 
 .data.root24len
                0x2001118c        0x4 pico.root.o
                0x2001118c                root24len
 .data.root25code
                0x20011190      0x1f1 pico.root.o
                0x20011190                root25code
 *fill*         0x20011381        0x3 
 .data.root25len
                0x20011384        0x4 pico.root.o
                0x20011384                root25len
 .data.conffile
                0x20011388        0x4 pico.o
                0x20011388                conffile
 .data.consoleprint
                0x2001138c        0x4 pico.o
                0x2001138c                consoleprint
 .data.devtab   0x20011390       0x40 pico.o
                0x20011390                devtab
 .data.heap_pool_pcnt
                0x200113d0        0x4 pico.o
                0x200113d0                heap_pool_pcnt
 .data.image_pool_pcnt
                0x200113d4        0x4 pico.o
                0x200113d4                image_pool_pcnt
 .data.kerndate
                0x200113d8        0x4 pico.o
                0x200113d8                kerndate
 .data.main_pool_pcnt
                0x200113dc        0x4 pico.o
                0x200113dc                main_pool_pcnt
 .data.rootdata
                0x200113e0      0x1a0 pico.o
                0x200113e0                rootdata
 .data.rootmaxq
                0x20011580        0x4 pico.o
                0x20011580                rootmaxq
 *fill*         0x20011584        0x4 
 .data.roottab  0x20011588      0x680 pico.o
                0x20011588                roottab
 .data          0x20011c08        0x4 /home/pi/github/inferno-pico/Pico/arm/lib/libinterp.a(alt.o)
 .data          0x20011c0c       0x60 /home/pi/github/inferno-pico/Pico/arm/lib/libinterp.a(comp-arm.o)
                0x20011c0c                mactab
 .data          0x20011c6c      0x840 /home/pi/github/inferno-pico/Pico/arm/lib/libinterp.a(conv.o)
                0x20011c6c                keywds
 .data          0x200124ac      0x400 /home/pi/github/inferno-pico/Pico/arm/lib/libinterp.a(dec.o)
                0x200124ac                dec
 .data          0x200128ac       0x10 /home/pi/github/inferno-pico/Pico/arm/lib/libinterp.a(gc.o)
                0x200128ac                gccolor
 .data          0x200128bc      0x140 /home/pi/github/inferno-pico/Pico/arm/lib/libinterp.a(heap.o)
                0x200128bc                Tarray
                0x200128dc                Treal
                0x200128fc                Tlong
                0x2001291c                Tword
                0x2001293c                Tbyte
                0x2001295c                Tptr
                0x2001297c                Tchannel
                0x2001299c                Tmodlink
                0x200129bc                Tlist
                0x200129dc                Tstring
 .data          0x200129fc      0x9b4 /home/pi/github/inferno-pico/Pico/arm/lib/libinterp.a(math.o)
                0x200129fc                Mathmodtab
 .data          0x200133b0      0x1c7 /home/pi/github/inferno-pico/Pico/arm/lib/libinterp.a(raise.o)
                0x200133b0                exRange
                0x200133c4                exNilref
                0x200133d8                exInval
                0x200133ec                exTcheck
                0x200133f8                exOp
                0x20013410                exSpawn
                0x20013428                exNomem
                0x2001343c                exNegsize
                0x20013450                exBounds
                0x20013464                exMathia
                0x2001347c                exItype
                0x20013490                exImage
                0x200134a8                exHeap
                0x200134bc                exZdiv
                0x200134c8                exType
                0x200134e8                exCphase
                0x20013500                exCctovflw
                0x20013518                exCrange
                0x20013528                exCompile
                0x20013538                exModule
                0x2001354c                exBusy
                0x2001355c                exAlt
 *fill*         0x20013577        0x1 
 .data          0x20013578      0x630 /home/pi/github/inferno-pico/Pico/arm/lib/libinterp.a(runt.o)
                0x20013578                Sysmodtab
 .data          0x20013ba8      0x400 /home/pi/github/inferno-pico/Pico/arm/lib/libinterp.a(xec.o)
                0x20013ba8                optab
 .data          0x20013fa8      0x3fc /home/pi/github/inferno-pico/Pico/arm/lib/libinterp.a(das-arm.o)
 .data          0x200143a4       0xb0 /home/pi/github/inferno-pico/Pico/arm/lib/libkern.a(fmt.o)
 .data          0x20014454        0x5 /home/pi/github/inferno-pico/Pico/arm/lib/libkern.a(tokenize.o)
 *fill*         0x20014459        0x3 
 .data          0x2001445c       0x48 /home/pi/github/inferno-pico/Pico/arm/lib/libpico.a(irq_handler_chain.o)
                0x2001445c                irq_handler_chain_slots
                0x2001448c                irq_handler_chain_first_slot
                0x20014496                irq_handler_chain_remove_tail
 .data.aeabi_mem_funcs
                0x200144a4       0x10 /home/pi/github/inferno-pico/Pico/arm/lib/libpico.a(mem_ops_aeabi.o)
                0x200144a4                aeabi_mem_funcs
                0x200144b4                aeabi_mem_funcs_end
 .data.stdio_uart
                0x200144b4       0x14 /home/pi/github/inferno-pico/Pico/arm/lib/libpico.a(stdio_uart.o)
                0x200144b4                stdio_uart
 .data.striped_spin_lock_num
                0x200144c8        0x1 /home/pi/github/inferno-pico/Pico/arm/lib/libpico.a(sync.o)
 *fill*         0x200144c9        0x3 
 .data.default_alarm_pool
                0x200144cc       0x18 /home/pi/github/inferno-pico/Pico/arm/lib/libpico.a(time.o)
 .data.default_alarm_pool_heap
                0x200144e4       0x10 /home/pi/github/inferno-pico/Pico/arm/lib/libpico.a(time.o)
                0x200144f4                . = ALIGN (0x4)
 *(.after_data.*)
                0x200144f4                . = ALIGN (0x4)
                0x200144f4                PROVIDE (__mutex_array_start = .)
 *(SORT_BY_NAME(.mutex_array.*))
 *(.mutex_array)
 .mutex_array   0x200144f4        0x8 /home/pi/github/inferno-pico/Pico/arm/lib/libpico.a(stdio.o)
                0x200144fc                PROVIDE (__mutex_array_end = .)
                0x200144fc                . = ALIGN (0x4)
                0x200144fc                PROVIDE (__preinit_array_start = .)
 *(SORT_BY_NAME(.preinit_array.*))
 .preinit_array.00001
                0x200144fc        0x4 /home/pi/github/inferno-pico/Pico/arm/lib/libpico.a(mem_ops_aeabi.o)
 *(.preinit_array)
                0x20014500                PROVIDE (__preinit_array_end = .)
                0x20014500                . = ALIGN (0x4)
                0x20014500                PROVIDE (__init_array_start = .)
 *(SORT_BY_NAME(.init_array.*))
 *(.init_array)
 .init_array    0x20014500        0x4 /usr/lib/gcc/arm-none-eabi/7.3.1/thumb/v6-m/crtbegin.o
 .init_array    0x20014504        0x4 /home/pi/github/inferno-pico/Pico/arm/lib/libpico.a(unique_id.o)
                0x20014508                PROVIDE (__init_array_end = .)
                0x20014508                . = ALIGN (0x4)
                0x20014508                PROVIDE (__fini_array_start = .)
 *(SORT_BY_NAME(.fini_array.*))
 *(.fini_array)
                0x20014508                PROVIDE (__fini_array_end = .)
 *(.jcr)
                0x20014508                . = ALIGN (0x4)
                0x20014508                __data_end__ = .

.tm_clone_table
                0x20014508        0x0 load address 0x10048d80
 .tm_clone_table
                0x20014508        0x0 /usr/lib/gcc/arm-none-eabi/7.3.1/thumb/v6-m/crtbegin.o
 .tm_clone_table
                0x20014508        0x0 /usr/lib/gcc/arm-none-eabi/7.3.1/thumb/v6-m/crtend.o

.igot.plt       0x20014508        0x0 load address 0x10048d80
 .igot.plt      0x20014508        0x0 /usr/lib/gcc/arm-none-eabi/7.3.1/thumb/v6-m/crtbegin.o

.uninitialized_data
                0x20014508        0x0 load address 0x10048d80
                0x20014508                . = ALIGN (0x4)
 *(.uninitialized_data*)

.scratch_x      0x20040000        0x0 load address 0x10048d80
                0x20040000                __scratch_x_start__ = .
 *(.scratch_x.*)
                0x20040000                . = ALIGN (0x4)
                0x20040000                __scratch_x_end__ = .
                0x10048d80                __scratch_x_source__ = LOADADDR (.scratch_x)

.scratch_y      0x20041000        0x0 load address 0x10048d80
                0x20041000                __scratch_y_start__ = .
 *(.scratch_y.*)
                0x20041000                . = ALIGN (0x4)
                0x20041000                __scratch_y_end__ = .
                0x10048d80                __scratch_y_source__ = LOADADDR (.scratch_y)

.bss            0x20014508     0x7758
                0x20014508                . = ALIGN (0x4)
                0x20014508                __bss_start__ = .
 *(SORT_BY_ALIGNMENT(SORT_BY_NAME(.bss*)))
 .bss.default_alarm_pool_entries
                0x20014508      0x100 /home/pi/github/inferno-pico/Pico/arm/lib/libpico.a(time.o)
 .bss           0x20014608       0x1c /usr/lib/gcc/arm-none-eabi/7.3.1/thumb/v6-m/crtbegin.o
 .bss           0x20014624     0x3024 /home/pi/github/inferno-pico/Pico/arm/lib/libinterp.a(comp-arm.o)
 .bss           0x20017648        0x4 /home/pi/github/inferno-pico/Pico/arm/lib/libinterp.a(conv.o)
 .bss           0x2001764c       0x9c /home/pi/github/inferno-pico/Pico/arm/lib/libinterp.a(gc.o)
                0x2001764c                mutator
 .bss           0x200176e8       0x10 /home/pi/github/inferno-pico/Pico/arm/lib/libinterp.a(string.o)
 .bss           0x200176f8       0x44 /home/pi/github/inferno-pico/Pico/arm/lib/libmath.a(dtoa.o)
 .bss           0x2001773c        0x1 /home/pi/github/inferno-pico/Pico/arm/lib/libkern.a(convM2D.o)
 *fill*         0x2001773d        0x3 
 .bss.FDmap     0x20017740        0x1 inferno.o
                0x20017740                FDmap
 *fill*         0x20017741        0x3 
 .bss.FioTread  0x20017744        0x4 inferno.o
 .bss.FioTwrite
                0x20017748        0x4 inferno.o
 .bss.SECURE    0x2001774c        0x4 devprog.o
                0x2001774c                SECURE
 .bss.Tdir      0x20017750        0x4 inferno.o
 .bss.alarm_callbacks
                0x20017754       0x10 /home/pi/github/inferno-pico/Pico/arm/lib/libpico.a(timer.o)
 .bss.boot2_copyout
                0x20017764      0x100 /home/pi/github/inferno-pico/Pico/arm/lib/libpico.a(flash.o)
 .bss.cflag     0x20017864        0x4 pico.o
                0x20017864                cflag
 .bss.collecting.6632
                0x20017868        0x4 devcons.o
 .bss.concatblockcnt
                0x2001786c        0x4 qio.o
 .bss.configured_freq
                0x20017870       0x28 /home/pi/github/inferno-pico/Pico/arm/lib/libpico.a(clocks.o)
 .bss.consumecnt
                0x20017898        0x4 qio.o
 .bss.copyblockcnt
                0x2001789c        0x4 qio.o
 .bss.ctrlt.6596
                0x200178a0        0x4 devcons.o
 .bss.dbg       0x200178a4      0x340 devcons.o
 .bss.debugging
                0x20017be4        0x4 qio.o
 .bss.default_alarm_pool_entry_ids_high
                0x20017be8       0x10 /home/pi/github/inferno-pico/Pico/arm/lib/libpico.a(time.o)
 .bss.default_alarm_pool_heap_nodes
                0x20017bf8       0x30 /home/pi/github/inferno-pico/Pico/arm/lib/libpico.a(time.o)
 .bss.dev       0x20017c28       0x2c devsrv.o
 .bss.drivers   0x20017c54        0x4 /home/pi/github/inferno-pico/Pico/arm/lib/libpico.a(stdio.o)
 .bss.exdebug   0x20017c58        0x4 exportfs.o
                0x20017c58                exdebug
 .bss.exstr     0x20017c5c        0x4 exception.o
 .bss.fcalls    0x20017c60      0x200 exportfs.o
 .bss.filter    0x20017e60        0x4 /home/pi/github/inferno-pico/Pico/arm/lib/libpico.a(stdio.o)
 .bss.fmtl      0x20017e64       0x10 print.o
 .bss.kbd       0x20017e74      0x43c devcons.o
 .bss.kc.6630   0x200182b0       0x3c devcons.o
 .bss.kprintq   0x200182ec       0x50 devcons.o
 .bss.mountid   0x2001833c       0x14 pgrp.o
 .bss.ncname    0x20018350       0x14 chan.o
 .bss.nk.6631   0x20018364        0x4 devcons.o
 .bss.occupied  0x20018368        0x4 proc.o
 .bss.once.7074
                0x2001836c        0x4 dis.o
 .bss.padblockcnt
                0x20018370        0x4 qio.o
 .bss.pgrpid    0x20018374       0x14 pgrp.o
 .bss.pidnum.6866
                0x20018388        0x4 dis.o
 .bss.pipealloc
                0x2001838c       0x18 devpipe.o
 .bss.pools     0x200183a4       0x10 /home/pi/github/inferno-pico/Pico/arm/lib/libpico.a(time.o)
 .bss.producecnt
                0x200183b4        0x4 qio.o
 .bss.proghash  0x200183b8      0x100 dis.o
 .bss.pullupblockcnt
                0x200184b8        0x4 qio.o
 .bss.qcopycnt  0x200184bc        0x4 qio.o
 .bss.rb        0x200184c0      0x464 random.o
 .bss.retrieved_id
                0x20018924        0x8 /home/pi/github/inferno-pico/Pico/arm/lib/libpico.a(unique_id.o)
 .bss.runq      0x2001892c      0x108 proc.o
 .bss.sleep_notifier
                0x20018a34        0x4 /home/pi/github/inferno-pico/Pico/arm/lib/libpico.a(time.o)
 .bss.target_hi
                0x20018a38       0x10 /home/pi/github/inferno-pico/Pico/arm/lib/libpico.a(timer.o)
 .bss.timers    0x20018a48       0x14 portclock.o
 .bss.uart_instance
                0x20018a5c        0x4 /home/pi/github/inferno-pico/Pico/arm/lib/libpico.a(stdio_uart.o)
 .bss.up        0x20018a60        0x4 main.o
                0x20018a60                up
 .bss.xlists    0x20018a64      0x818 xalloc.o
 .bss.boot2_copyout_valid
                0x2001927c        0x1 /home/pi/github/inferno-pico/Pico/arm/lib/libpico.a(flash.o)
 .bss.claimed   0x2001927d        0x1 /home/pi/github/inferno-pico/Pico/arm/lib/libpico.a(timer.o)
 .bss.irq_hander_chain_free_slot_head
                0x2001927e        0x1 /home/pi/github/inferno-pico/Pico/arm/lib/libpico.a(irq.o)
 .bss.timer_callbacks_pending
                0x2001927f        0x1 /home/pi/github/inferno-pico/Pico/arm/lib/libpico.a(timer.o)
 *(COMMON)
 COMMON         0x20019280      0x124 main.o
                0x20019280                conf
                0x200192a8                proctrace
                0x200192ac                screenputs
                0x200192b0                active
                0x200192c8                machaddr
                0x20019398                serwrite
                0x2001939c                m
                0x200193a0                kproftick
 COMMON         0x200193a4       0x44 devcons.o
                0x200193a4                printq
                0x200193a8                kscanid
                0x200193ac                kbdq
                0x200193b0                klogq
                0x200193b4                kscanq
                0x200193b8                eve
                0x200193bc                grandomlk
                0x200193d8                sysname
                0x200193dc                boottime
                0x200193e0                lineq
                0x200193e4                iprintscreenputs
 COMMON         0x200193e8     0x202c devmnt.o
                0x200193e8                mntstats
                0x200193ec                mntalloc
 COMMON         0x2001b414        0x8 devsrv.o
                0x2001b414                Twrchan
                0x2001b418                Trdchan
 COMMON         0x2001b41c       0x14 alarm.o
                0x2001b41c                talarm
 COMMON         0x2001b430       0x14 allocb.o
                0x2001b430                ialloc
 COMMON         0x2001b444       0x1c chan.o
                0x2001b444                chanalloc
 COMMON         0x2001b460        0x8 portclock.o
                0x2001b460                intrcount
                0x2001b464                fcallcount
 COMMON         0x2001b468       0x78 dis.o
                0x2001b468                bflag
                0x2001b470                gcidlepass
                0x2001b478                gcbusy
                0x2001b480                isched
                0x2001b4d0                gcpartial
                0x2001b4d8                gcidle
 COMMON         0x2001b4e0       0x48 exportfs.o
                0x2001b4e0                exq
 COMMON         0x2001b528        0x8 inferno.o
                0x2001b528                TFileIO
                0x2001b52c                TFD
 COMMON         0x2001b530       0x30 proc.o
                0x2001b530                procalloc
                0x2001b548                pidalloc
                0x2001b55c                nrdy
 COMMON         0x2001b560        0x4 qio.o
                0x2001b560                noblockcnt
 *fill*         0x2001b564        0x4 
 COMMON         0x2001b568       0x58 tod.o
                0x2001b568                tod
 COMMON         0x2001b5c0        0x4 /home/pi/github/inferno-pico/Pico/arm/lib/libinterp.a(comp-arm.o)
                0x2001b5c0                comvec
 COMMON         0x2001b5c4      0x400 /home/pi/github/inferno-pico/Pico/arm/lib/libinterp.a(conv.o)
                0x2001b5c4                opnam
 *fill*         0x2001b9c4        0x4 
 COMMON         0x2001b9c8       0x34 /home/pi/github/inferno-pico/Pico/arm/lib/libinterp.a(gc.o)
                0x2001b9c8                gcsweeps
                0x2001b9cc                gcnruns
                0x2001b9d0                gcdestroys
                0x2001b9d8                gcinspects
                0x2001b9e0                mflag
                0x2001b9e4                ptr
                0x2001b9e8                gchalted
                0x2001b9ec                nprop
                0x2001b9f0                gchalt
                0x2001b9f4                gcbroken
                0x2001b9f8                gcepochs
 COMMON         0x2001b9fc        0x4 /home/pi/github/inferno-pico/Pico/arm/lib/libinterp.a(heap.o)
                0x2001b9fc                heapmonitor
 COMMON         0x2001ba00        0x8 /home/pi/github/inferno-pico/Pico/arm/lib/libinterp.a(load.o)
                0x2001ba00                dontcompile
                0x2001ba04                modules
 COMMON         0x2001ba08       0x4c /home/pi/github/inferno-pico/Pico/arm/lib/libinterp.a(xec.o)
                0x2001ba08                snil
                0x2001ba18                R
 COMMON         0x2001ba54      0x208 /home/pi/github/inferno-pico/Pico/arm/lib/libkern.a(fmt.o)
                0x2001ba54                doquote
                0x2001ba58                fmtalloc
 COMMON         0x2001bc5c        0x4 /home/pi/github/inferno-pico/Pico/arm/lib/libpico.a(uart.o)
                0x2001bc5c                uart_char_to_line_feed
                0x2001bc60                . = ALIGN (0x4)
                0x2001bc60                __bss_end__ = .

.heap           0x2001bc60      0x800
                0x2001bc60                __end__ = .
                0x2001bc60                end = __end__
 *(.heap*)
 .heap          0x2001bc60      0x800 /home/pi/github/inferno-pico/Pico/arm/lib/libpico.a(crt0.o)
                0x2001c460                __HeapLimit = .

.stack1_dummy   0x20040000        0x0
 *(.stack1*)

.stack_dummy    0x20041000      0x800
 *(.stack*)
 .stack         0x20041000      0x800 /home/pi/github/inferno-pico/Pico/arm/lib/libpico.a(crt0.o)

.flash_end      0x10048d80        0x0
                0x10048d80                __flash_binary_end = .
                0x20040000                __StackLimit = (ORIGIN (RAM) + LENGTH (RAM))
                0x20041000                __StackOneTop = (ORIGIN (SCRATCH_X) + LENGTH (SCRATCH_X))
                0x20042000                __StackTop = (ORIGIN (SCRATCH_Y) + LENGTH (SCRATCH_Y))
                0x20041000                __StackOneBottom = (__StackOneTop - SIZEOF (.stack1_dummy))
                0x20041800                __StackBottom = (__StackTop - SIZEOF (.stack_dummy))
                0x20042000                PROVIDE (__stack = __StackTop)
                0x00000001                ASSERT ((__StackLimit >= __HeapLimit), region RAM overflowed)
                0x00000001                ASSERT (((__binary_info_header_end - __logical_binary_start) <= 0x100), Binary info must be in first 256 bytes of the binary)
LOAD main.o
LOAD armv6.o
LOAD devroot.o
LOAD devcons.o
LOAD devenv.o
LOAD devmnt.o
LOAD devpipe.o
LOAD devprog.o
LOAD devsrv.o
LOAD devdup.o
LOAD archpico.o
LOAD alarm.o
LOAD alloc.o
LOAD allocb.o
LOAD chan.o
LOAD portclock.o
LOAD dev.o
LOAD dial.o
LOAD dis.o
LOAD discall.o
LOAD exception.o
LOAD exportfs.o
LOAD inferno.o
LOAD latin1.o
LOAD mul64fract.o
LOAD nocache.o
LOAD nodynld.o
LOAD parse.o
LOAD pgrp.o
LOAD print.o
LOAD proc.o
LOAD qio.o
LOAD qlock.o
LOAD random.o
LOAD sysfile.o
LOAD taslock.o
LOAD tod.o
LOAD xalloc.o
LOAD dump.o
LOAD pico.root.o
LOAD pico.o
LOAD /home/pi/github/inferno-pico/Pico/arm/lib/libinterp.a
LOAD /home/pi/github/inferno-pico/Pico/arm/lib/libmath.a
LOAD /home/pi/github/inferno-pico/Pico/arm/lib/libkern.a
LOAD /home/pi/github/inferno-pico/Pico/arm/lib/libpico.a
LOAD /tmp/cccGXpSV.o
LOAD /usr/lib/gcc/arm-none-eabi/7.3.1/../../../arm-none-eabi/lib/thumb/v6-m/libstdc++.a
LOAD /usr/lib/gcc/arm-none-eabi/7.3.1/../../../arm-none-eabi/lib/thumb/v6-m/libm.a
START GROUP
LOAD /usr/lib/gcc/arm-none-eabi/7.3.1/thumb/v6-m/libgcc.a
LOAD /usr/lib/gcc/arm-none-eabi/7.3.1/../../../arm-none-eabi/lib/thumb/v6-m/libg.a
LOAD /usr/lib/gcc/arm-none-eabi/7.3.1/../../../arm-none-eabi/lib/thumb/v6-m/libc.a
END GROUP
START GROUP
LOAD /usr/lib/gcc/arm-none-eabi/7.3.1/thumb/v6-m/libgcc.a
LOAD /usr/lib/gcc/arm-none-eabi/7.3.1/../../../arm-none-eabi/lib/thumb/v6-m/libc.a
LOAD /usr/lib/gcc/arm-none-eabi/7.3.1/../../../arm-none-eabi/lib/thumb/v6-m/libnosys.a
END GROUP
LOAD /usr/lib/gcc/arm-none-eabi/7.3.1/thumb/v6-m/crtend.o
LOAD /usr/lib/gcc/arm-none-eabi/7.3.1/thumb/v6-m/crtn.o
OUTPUT(ipico elf32-littlearm)

.ARM.attributes
                0x00000000       0x2d
 .ARM.attributes
                0x00000000       0x1e /usr/lib/gcc/arm-none-eabi/7.3.1/thumb/v6-m/crti.o
 .ARM.attributes
                0x0000001e       0x2c /usr/lib/gcc/arm-none-eabi/7.3.1/thumb/v6-m/crtbegin.o
 .ARM.attributes
                0x0000004a       0x32 main.o
 .ARM.attributes
                0x0000007c       0x22 armv6.o
 .ARM.attributes
                0x0000009e       0x32 devroot.o
 .ARM.attributes
                0x000000d0       0x32 devcons.o
 .ARM.attributes
                0x00000102       0x32 devenv.o
 .ARM.attributes
                0x00000134       0x32 devmnt.o
 .ARM.attributes
                0x00000166       0x32 devpipe.o
 .ARM.attributes
                0x00000198       0x32 devprog.o
 .ARM.attributes
                0x000001ca       0x32 devsrv.o
 .ARM.attributes
                0x000001fc       0x32 devdup.o
 .ARM.attributes
                0x0000022e       0x32 archpico.o
 .ARM.attributes
                0x00000260       0x32 alarm.o
 .ARM.attributes
                0x00000292       0x32 alloc.o
 .ARM.attributes
                0x000002c4       0x32 allocb.o
 .ARM.attributes
                0x000002f6       0x32 chan.o
 .ARM.attributes
                0x00000328       0x32 portclock.o
 .ARM.attributes
                0x0000035a       0x32 dev.o
 .ARM.attributes
                0x0000038c       0x32 dial.o
 .ARM.attributes
                0x000003be       0x32 dis.o
 .ARM.attributes
                0x000003f0       0x32 exception.o
 .ARM.attributes
                0x00000422       0x32 exportfs.o
 .ARM.attributes
                0x00000454       0x32 inferno.o
 .ARM.attributes
                0x00000486       0x32 latin1.o
 .ARM.attributes
                0x000004b8       0x32 mul64fract.o
 .ARM.attributes
                0x000004ea       0x32 nocache.o
 .ARM.attributes
                0x0000051c       0x32 nodynld.o
 .ARM.attributes
                0x0000054e       0x32 parse.o
 .ARM.attributes
                0x00000580       0x32 pgrp.o
 .ARM.attributes
                0x000005b2       0x32 print.o
 .ARM.attributes
                0x000005e4       0x32 proc.o
 .ARM.attributes
                0x00000616       0x32 qio.o
 .ARM.attributes
                0x00000648       0x32 qlock.o
 .ARM.attributes
                0x0000067a       0x32 random.o
 .ARM.attributes
                0x000006ac       0x32 sysfile.o
 .ARM.attributes
                0x000006de       0x32 taslock.o
 .ARM.attributes
                0x00000710       0x32 tod.o
 .ARM.attributes
                0x00000742       0x32 xalloc.o
 .ARM.attributes
                0x00000774       0x32 dump.o
 .ARM.attributes
                0x000007a6       0x32 pico.root.o
 .ARM.attributes
                0x000007d8       0x32 pico.o
 .ARM.attributes
                0x0000080a       0x32 /home/pi/github/inferno-pico/Pico/arm/lib/libinterp.a(alt.o)
 .ARM.attributes
                0x0000083c       0x32 /home/pi/github/inferno-pico/Pico/arm/lib/libinterp.a(comp-arm.o)
 .ARM.attributes
                0x0000086e       0x32 /home/pi/github/inferno-pico/Pico/arm/lib/libinterp.a(conv.o)
 .ARM.attributes
                0x000008a0       0x32 /home/pi/github/inferno-pico/Pico/arm/lib/libinterp.a(dec.o)
 .ARM.attributes
                0x000008d2       0x32 /home/pi/github/inferno-pico/Pico/arm/lib/libinterp.a(gc.o)
 .ARM.attributes
                0x00000904       0x32 /home/pi/github/inferno-pico/Pico/arm/lib/libinterp.a(heap.o)
 .ARM.attributes
                0x00000936       0x32 /home/pi/github/inferno-pico/Pico/arm/lib/libinterp.a(link.o)
 .ARM.attributes
                0x00000968       0x32 /home/pi/github/inferno-pico/Pico/arm/lib/libinterp.a(load.o)
 .ARM.attributes
                0x0000099a       0x32 /home/pi/github/inferno-pico/Pico/arm/lib/libinterp.a(math.o)
 .ARM.attributes
                0x000009cc       0x32 /home/pi/github/inferno-pico/Pico/arm/lib/libinterp.a(raise.o)
 .ARM.attributes
                0x000009fe       0x32 /home/pi/github/inferno-pico/Pico/arm/lib/libinterp.a(readmod.o)
 .ARM.attributes
                0x00000a30       0x32 /home/pi/github/inferno-pico/Pico/arm/lib/libinterp.a(runt.o)
 .ARM.attributes
                0x00000a62       0x32 /home/pi/github/inferno-pico/Pico/arm/lib/libinterp.a(sign.o)
 .ARM.attributes
                0x00000a94       0x32 /home/pi/github/inferno-pico/Pico/arm/lib/libinterp.a(stack.o)
 .ARM.attributes
                0x00000ac6       0x32 /home/pi/github/inferno-pico/Pico/arm/lib/libinterp.a(xec.o)
 .ARM.attributes
                0x00000af8       0x32 /home/pi/github/inferno-pico/Pico/arm/lib/libinterp.a(das-arm.o)
 .ARM.attributes
                0x00000b2a       0x32 /home/pi/github/inferno-pico/Pico/arm/lib/libinterp.a(string.o)
 .ARM.attributes
                0x00000b5c       0x32 /home/pi/github/inferno-pico/Pico/arm/lib/libinterp.a(dlm-Pico.o)
 .ARM.attributes
                0x00000b8e       0x32 /home/pi/github/inferno-pico/Pico/arm/lib/libmath.a(blas.o)
 .ARM.attributes
                0x00000bc0       0x32 /home/pi/github/inferno-pico/Pico/arm/lib/libmath.a(dtoa.o)
 .ARM.attributes
                0x00000bf2       0x32 /home/pi/github/inferno-pico/Pico/arm/lib/libmath.a(fdim.o)
 .ARM.attributes
                0x00000c24       0x32 /home/pi/github/inferno-pico/Pico/arm/lib/libmath.a(FPcontrol-Pico.o)
 .ARM.attributes
                0x00000c56       0x32 /home/pi/github/inferno-pico/Pico/arm/lib/libmath.a(gemm.o)
 .ARM.attributes
                0x00000c88       0x32 /home/pi/github/inferno-pico/Pico/arm/lib/libmath.a(gfltconv.o)
 .ARM.attributes
                0x00000cba       0x32 /home/pi/github/inferno-pico/Pico/arm/lib/libmath.a(pow10.o)
 .ARM.attributes
                0x00000cec       0x32 /home/pi/github/inferno-pico/Pico/arm/lib/libmath.a(e_acos.o)
 .ARM.attributes
                0x00000d1e       0x32 /home/pi/github/inferno-pico/Pico/arm/lib/libmath.a(e_acosh.o)
 .ARM.attributes
                0x00000d50       0x32 /home/pi/github/inferno-pico/Pico/arm/lib/libmath.a(e_asin.o)
 .ARM.attributes
                0x00000d82       0x32 /home/pi/github/inferno-pico/Pico/arm/lib/libmath.a(e_atan2.o)
 .ARM.attributes
                0x00000db4       0x32 /home/pi/github/inferno-pico/Pico/arm/lib/libmath.a(e_atanh.o)
 .ARM.attributes
                0x00000de6       0x32 /home/pi/github/inferno-pico/Pico/arm/lib/libmath.a(e_cosh.o)
 .ARM.attributes
                0x00000e18       0x32 /home/pi/github/inferno-pico/Pico/arm/lib/libmath.a(e_exp.o)
 .ARM.attributes
                0x00000e4a       0x32 /home/pi/github/inferno-pico/Pico/arm/lib/libmath.a(e_fmod.o)
 .ARM.attributes
                0x00000e7c       0x32 /home/pi/github/inferno-pico/Pico/arm/lib/libmath.a(e_hypot.o)
 .ARM.attributes
                0x00000eae       0x32 /home/pi/github/inferno-pico/Pico/arm/lib/libmath.a(e_j0.o)
 .ARM.attributes
                0x00000ee0       0x32 /home/pi/github/inferno-pico/Pico/arm/lib/libmath.a(e_j1.o)
 .ARM.attributes
                0x00000f12       0x32 /home/pi/github/inferno-pico/Pico/arm/lib/libmath.a(e_jn.o)
 .ARM.attributes
                0x00000f44       0x32 /home/pi/github/inferno-pico/Pico/arm/lib/libmath.a(e_lgamma_r.o)
 .ARM.attributes
                0x00000f76       0x32 /home/pi/github/inferno-pico/Pico/arm/lib/libmath.a(e_log.o)
 .ARM.attributes
                0x00000fa8       0x32 /home/pi/github/inferno-pico/Pico/arm/lib/libmath.a(e_log10.o)
 .ARM.attributes
                0x00000fda       0x32 /home/pi/github/inferno-pico/Pico/arm/lib/libmath.a(e_pow.o)
 .ARM.attributes
                0x0000100c       0x32 /home/pi/github/inferno-pico/Pico/arm/lib/libmath.a(e_remainder.o)
 .ARM.attributes
                0x0000103e       0x32 /home/pi/github/inferno-pico/Pico/arm/lib/libmath.a(e_sinh.o)
 .ARM.attributes
                0x00001070       0x32 /home/pi/github/inferno-pico/Pico/arm/lib/libmath.a(e_sqrt.o)
 .ARM.attributes
                0x000010a2       0x32 /home/pi/github/inferno-pico/Pico/arm/lib/libmath.a(k_cos.o)
 .ARM.attributes
                0x000010d4       0x32 /home/pi/github/inferno-pico/Pico/arm/lib/libmath.a(k_sin.o)
 .ARM.attributes
                0x00001106       0x32 /home/pi/github/inferno-pico/Pico/arm/lib/libmath.a(s_erf.o)
 .ARM.attributes
                0x00001138       0x32 /home/pi/github/inferno-pico/Pico/arm/lib/libmath.a(s_fabs.o)
 .ARM.attributes
                0x0000116a       0x32 /home/pi/github/inferno-pico/Pico/arm/lib/libmath.a(s_finite.o)
 .ARM.attributes
                0x0000119c       0x32 /home/pi/github/inferno-pico/Pico/arm/lib/libmath.a(s_ilogb.o)
 .ARM.attributes
                0x000011ce       0x32 /home/pi/github/inferno-pico/Pico/arm/lib/libmath.a(s_nextafter.o)
 .ARM.attributes
                0x00001200       0x32 /home/pi/github/inferno-pico/Pico/arm/lib/libmath.a(s_rint.o)
 .ARM.attributes
                0x00001232       0x32 /home/pi/github/inferno-pico/Pico/arm/lib/libmath.a(s_scalbn.o)
 .ARM.attributes
                0x00001264       0x32 /home/pi/github/inferno-pico/Pico/arm/lib/libmath.a(g_fmt.o)
 .ARM.attributes
                0x00001296       0x32 /home/pi/github/inferno-pico/Pico/arm/lib/libkern.a(abort.o)
 .ARM.attributes
                0x000012c8       0x32 /home/pi/github/inferno-pico/Pico/arm/lib/libkern.a(abs.o)
 .ARM.attributes
                0x000012fa       0x32 /home/pi/github/inferno-pico/Pico/arm/lib/libkern.a(atol.o)
 .ARM.attributes
                0x0000132c       0x32 /home/pi/github/inferno-pico/Pico/arm/lib/libkern.a(cleanname.o)
 .ARM.attributes
                0x0000135e       0x32 /home/pi/github/inferno-pico/Pico/arm/lib/libkern.a(convD2M.o)
 .ARM.attributes
                0x00001390       0x32 /home/pi/github/inferno-pico/Pico/arm/lib/libkern.a(convM2D.o)
 .ARM.attributes
                0x000013c2       0x32 /home/pi/github/inferno-pico/Pico/arm/lib/libkern.a(convM2S.o)
 .ARM.attributes
                0x000013f4       0x32 /home/pi/github/inferno-pico/Pico/arm/lib/libkern.a(convS2M.o)
 .ARM.attributes
                0x00001426       0x32 /home/pi/github/inferno-pico/Pico/arm/lib/libkern.a(dofmt.o)
 .ARM.attributes
                0x00001458       0x32 /home/pi/github/inferno-pico/Pico/arm/lib/libkern.a(fcallfmt.o)
 .ARM.attributes
                0x0000148a       0x32 /home/pi/github/inferno-pico/Pico/arm/lib/libkern.a(fmt.o)
 .ARM.attributes
                0x000014bc       0x32 /home/pi/github/inferno-pico/Pico/arm/lib/libkern.a(fmtquote.o)
 .ARM.attributes
                0x000014ee       0x32 /home/pi/github/inferno-pico/Pico/arm/lib/libkern.a(memchr.o)
 .ARM.attributes
                0x00001520       0x32 /home/pi/github/inferno-pico/Pico/arm/lib/libkern.a(memcmp.o)
 .ARM.attributes
                0x00001552       0x32 /home/pi/github/inferno-pico/Pico/arm/lib/libkern.a(rune.o)
 .ARM.attributes
                0x00001584       0x32 /home/pi/github/inferno-pico/Pico/arm/lib/libkern.a(seprint.o)
 .ARM.attributes
                0x000015b6       0x32 /home/pi/github/inferno-pico/Pico/arm/lib/libkern.a(strcmp.o)
 .ARM.attributes
                0x000015e8       0x32 /home/pi/github/inferno-pico/Pico/arm/lib/libkern.a(strcpy.o)
 .ARM.attributes
                0x0000161a       0x32 /home/pi/github/inferno-pico/Pico/arm/lib/libkern.a(strdup.o)
 .ARM.attributes
                0x0000164c       0x32 /home/pi/github/inferno-pico/Pico/arm/lib/libkern.a(strecpy.o)
 .ARM.attributes
                0x0000167e       0x32 /home/pi/github/inferno-pico/Pico/arm/lib/libkern.a(strlen.o)
 .ARM.attributes
                0x000016b0       0x32 /home/pi/github/inferno-pico/Pico/arm/lib/libkern.a(strncmp.o)
 .ARM.attributes
                0x000016e2       0x32 /home/pi/github/inferno-pico/Pico/arm/lib/libkern.a(strncpy.o)
 .ARM.attributes
                0x00001714       0x32 /home/pi/github/inferno-pico/Pico/arm/lib/libkern.a(strrchr.o)
 .ARM.attributes
                0x00001746       0x32 /home/pi/github/inferno-pico/Pico/arm/lib/libkern.a(strstr.o)
 .ARM.attributes
                0x00001778       0x32 /home/pi/github/inferno-pico/Pico/arm/lib/libkern.a(strtol.o)
 .ARM.attributes
                0x000017aa       0x32 /home/pi/github/inferno-pico/Pico/arm/lib/libkern.a(strtoll.o)
 .ARM.attributes
                0x000017dc       0x32 /home/pi/github/inferno-pico/Pico/arm/lib/libkern.a(strtoul.o)
 .ARM.attributes
                0x0000180e       0x32 /home/pi/github/inferno-pico/Pico/arm/lib/libkern.a(tokenize.o)
 .ARM.attributes
                0x00001840       0x32 /home/pi/github/inferno-pico/Pico/arm/lib/libkern.a(utflen.o)
 .ARM.attributes
                0x00001872       0x32 /home/pi/github/inferno-pico/Pico/arm/lib/libkern.a(utfnlen.o)
 .ARM.attributes
                0x000018a4       0x32 /home/pi/github/inferno-pico/Pico/arm/lib/libkern.a(utfrune.o)
 .ARM.attributes
                0x000018d6       0x32 /home/pi/github/inferno-pico/Pico/arm/lib/libkern.a(vseprint.o)
 .ARM.attributes
                0x00001908       0x32 /home/pi/github/inferno-pico/Pico/arm/lib/libkern.a(frexp-arm.o)
 .ARM.attributes
                0x0000193a       0x16 /home/pi/github/inferno-pico/Pico/arm/lib/libkern.a(getfcr-arm.o)
 .ARM.attributes
                0x00001950       0x32 /home/pi/github/inferno-pico/Pico/arm/lib/libkern.a(nan-arm.o)
 .ARM.attributes
                0x00001982       0x32 /home/pi/github/inferno-pico/Pico/arm/lib/libkern.a(memccpy.o)
 .ARM.attributes
                0x000019b4       0x32 /home/pi/github/inferno-pico/Pico/arm/lib/libpico.a(clocks.o)
 .ARM.attributes
                0x000019e6       0x22 /home/pi/github/inferno-pico/Pico/arm/lib/libpico.a(crt0.o)
 .ARM.attributes
                0x00001a08       0x22 /home/pi/github/inferno-pico/Pico/arm/lib/libpico.a(double_none.o)
 .ARM.attributes
                0x00001a2a       0x22 /home/pi/github/inferno-pico/Pico/arm/lib/libpico.a(float_none.o)
 .ARM.attributes
                0x00001a4c       0x32 /home/pi/github/inferno-pico/Pico/arm/lib/libpico.a(gpio.o)
 .ARM.attributes
                0x00001a7e       0x32 /home/pi/github/inferno-pico/Pico/arm/lib/libpico.a(irq.o)
 .ARM.attributes
                0x00001ab0       0x22 /home/pi/github/inferno-pico/Pico/arm/lib/libpico.a(irq_handler_chain.o)
 .ARM.attributes
                0x00001ad2       0x22 /home/pi/github/inferno-pico/Pico/arm/lib/libpico.a(mem_ops_aeabi.o)
 .ARM.attributes
                0x00001af4       0x22 /home/pi/github/inferno-pico/Pico/arm/lib/libpico.a(pico_divider.o)
 .ARM.attributes
                0x00001b16       0x32 /home/pi/github/inferno-pico/Pico/arm/lib/libpico.a(pico_malloc.o)
 .ARM.attributes
                0x00001b48       0x32 /home/pi/github/inferno-pico/Pico/arm/lib/libpico.a(platform.o)
 .ARM.attributes
                0x00001b7a       0x32 /home/pi/github/inferno-pico/Pico/arm/lib/libpico.a(pll.o)
 .ARM.attributes
                0x00001bac       0x32 /home/pi/github/inferno-pico/Pico/arm/lib/libpico.a(runtime.o)
 .ARM.attributes
                0x00001bde       0x32 /home/pi/github/inferno-pico/Pico/arm/lib/libpico.a(stdio.o)
 .ARM.attributes
                0x00001c10       0x32 /home/pi/github/inferno-pico/Pico/arm/lib/libpico.a(stdio_uart.o)
 .ARM.attributes
                0x00001c42       0x32 /home/pi/github/inferno-pico/Pico/arm/lib/libpico.a(sync.o)
 .ARM.attributes
                0x00001c74       0x32 /home/pi/github/inferno-pico/Pico/arm/lib/libpico.a(time.o)
 .ARM.attributes
                0x00001ca6       0x32 /home/pi/github/inferno-pico/Pico/arm/lib/libpico.a(timer.o)
 .ARM.attributes
                0x00001cd8       0x32 /home/pi/github/inferno-pico/Pico/arm/lib/libpico.a(uart.o)
 .ARM.attributes
                0x00001d0a       0x32 /home/pi/github/inferno-pico/Pico/arm/lib/libpico.a(unique_id.o)
 .ARM.attributes
                0x00001d3c       0x32 /home/pi/github/inferno-pico/Pico/arm/lib/libpico.a(watchdog.o)
 .ARM.attributes
                0x00001d6e       0x32 /home/pi/github/inferno-pico/Pico/arm/lib/libpico.a(xosc.o)
 .ARM.attributes
                0x00001da0       0x22 /home/pi/github/inferno-pico/Pico/arm/lib/libpico.a(pico_int64_ops_aeabi.o)
 .ARM.attributes
                0x00001dc2       0x32 /home/pi/github/inferno-pico/Pico/arm/lib/libpico.a(bootrom.o)
 .ARM.attributes
                0x00001df4       0x32 /home/pi/github/inferno-pico/Pico/arm/lib/libpico.a(claim.o)
 .ARM.attributes
                0x00001e26       0x32 /home/pi/github/inferno-pico/Pico/arm/lib/libpico.a(flash.o)
 .ARM.attributes
                0x00001e58       0x32 /home/pi/github/inferno-pico/Pico/arm/lib/libpico.a(lock_core.o)
 .ARM.attributes
                0x00001e8a       0x32 /home/pi/github/inferno-pico/Pico/arm/lib/libpico.a(mutex.o)
 .ARM.attributes
                0x00001ebc       0x32 /home/pi/github/inferno-pico/Pico/arm/lib/libpico.a(pheap.o)
 .ARM.attributes
                0x00001eee       0x32 /home/pi/github/inferno-pico/Pico/arm/lib/libpico.a(printf.o)
 .ARM.attributes
                0x00001f20       0x22 /tmp/cccGXpSV.o
 .ARM.attributes
                0x00001f42       0x1e /usr/lib/gcc/arm-none-eabi/7.3.1/thumb/v6-m/libgcc.a(_dvmd_tls.o)
 .ARM.attributes
                0x00001f60       0x2c /usr/lib/gcc/arm-none-eabi/7.3.1/../../../arm-none-eabi/lib/thumb/v6-m/libg.a(lib_a-memmove.o)
 .ARM.attributes
                0x00001f8c       0x2c /usr/lib/gcc/arm-none-eabi/7.3.1/../../../arm-none-eabi/lib/thumb/v6-m/libg.a(lib_a-strchr.o)
 .ARM.attributes
                0x00001fb8       0x2c /usr/lib/gcc/arm-none-eabi/7.3.1/thumb/v6-m/crtend.o

.comment        0x00000000       0xae
 .comment       0x00000000       0x57 /usr/lib/gcc/arm-none-eabi/7.3.1/thumb/v6-m/crtbegin.o
                                 0x58 (size before relaxing)
 .comment       0x00000057       0x58 main.o
 .comment       0x00000057       0x58 devroot.o
 .comment       0x00000057       0x58 devcons.o
 .comment       0x00000057       0x58 devenv.o
 .comment       0x00000057       0x58 devmnt.o
 .comment       0x00000057       0x58 devpipe.o
 .comment       0x00000057       0x58 devprog.o
 .comment       0x00000057       0x58 devsrv.o
 .comment       0x00000057       0x58 devdup.o
 .comment       0x00000057       0x58 archpico.o
 .comment       0x00000057       0x58 alarm.o
 .comment       0x00000057       0x58 alloc.o
 .comment       0x00000057       0x58 allocb.o
 .comment       0x00000057       0x58 chan.o
 .comment       0x00000057       0x58 portclock.o
 .comment       0x00000057       0x58 dev.o
 .comment       0x00000057       0x58 dial.o
 .comment       0x00000057       0x58 dis.o
 .comment       0x00000057       0x58 exception.o
 .comment       0x00000057       0x58 exportfs.o
 .comment       0x00000057       0x58 inferno.o
 .comment       0x00000057       0x58 latin1.o
 .comment       0x00000057       0x58 mul64fract.o
 .comment       0x00000057       0x58 nocache.o
 .comment       0x00000057       0x58 nodynld.o
 .comment       0x00000057       0x58 parse.o
 .comment       0x00000057       0x58 pgrp.o
 .comment       0x00000057       0x58 print.o
 .comment       0x00000057       0x58 proc.o
 .comment       0x00000057       0x58 qio.o
 .comment       0x00000057       0x58 qlock.o
 .comment       0x00000057       0x58 random.o
 .comment       0x00000057       0x58 sysfile.o
 .comment       0x00000057       0x58 taslock.o
 .comment       0x00000057       0x58 tod.o
 .comment       0x00000057       0x58 xalloc.o
 .comment       0x00000057       0x58 dump.o
 .comment       0x00000057       0x58 pico.root.o
 .comment       0x00000057       0x58 pico.o
 .comment       0x00000057       0x58 /home/pi/github/inferno-pico/Pico/arm/lib/libinterp.a(alt.o)
 .comment       0x00000057       0x58 /home/pi/github/inferno-pico/Pico/arm/lib/libinterp.a(comp-arm.o)
 .comment       0x00000057       0x58 /home/pi/github/inferno-pico/Pico/arm/lib/libinterp.a(conv.o)
 .comment       0x00000057       0x58 /home/pi/github/inferno-pico/Pico/arm/lib/libinterp.a(dec.o)
 .comment       0x00000057       0x58 /home/pi/github/inferno-pico/Pico/arm/lib/libinterp.a(gc.o)
 .comment       0x00000057       0x58 /home/pi/github/inferno-pico/Pico/arm/lib/libinterp.a(heap.o)
 .comment       0x00000057       0x58 /home/pi/github/inferno-pico/Pico/arm/lib/libinterp.a(link.o)
 .comment       0x00000057       0x58 /home/pi/github/inferno-pico/Pico/arm/lib/libinterp.a(load.o)
 .comment       0x00000057       0x58 /home/pi/github/inferno-pico/Pico/arm/lib/libinterp.a(math.o)
 .comment       0x00000057       0x58 /home/pi/github/inferno-pico/Pico/arm/lib/libinterp.a(raise.o)
 .comment       0x00000057       0x58 /home/pi/github/inferno-pico/Pico/arm/lib/libinterp.a(readmod.o)
 .comment       0x00000057       0x58 /home/pi/github/inferno-pico/Pico/arm/lib/libinterp.a(runt.o)
 .comment       0x00000057       0x58 /home/pi/github/inferno-pico/Pico/arm/lib/libinterp.a(sign.o)
 .comment       0x00000057       0x58 /home/pi/github/inferno-pico/Pico/arm/lib/libinterp.a(stack.o)
 .comment       0x00000057       0x58 /home/pi/github/inferno-pico/Pico/arm/lib/libinterp.a(xec.o)
 .comment       0x00000057       0x58 /home/pi/github/inferno-pico/Pico/arm/lib/libinterp.a(das-arm.o)
 .comment       0x00000057       0x58 /home/pi/github/inferno-pico/Pico/arm/lib/libinterp.a(string.o)
 .comment       0x00000057       0x58 /home/pi/github/inferno-pico/Pico/arm/lib/libinterp.a(dlm-Pico.o)
 .comment       0x00000057       0x58 /home/pi/github/inferno-pico/Pico/arm/lib/libmath.a(blas.o)
 .comment       0x00000057       0x58 /home/pi/github/inferno-pico/Pico/arm/lib/libmath.a(dtoa.o)
 .comment       0x00000057       0x58 /home/pi/github/inferno-pico/Pico/arm/lib/libmath.a(fdim.o)
 .comment       0x00000057       0x58 /home/pi/github/inferno-pico/Pico/arm/lib/libmath.a(FPcontrol-Pico.o)
 .comment       0x00000057       0x58 /home/pi/github/inferno-pico/Pico/arm/lib/libmath.a(gemm.o)
 .comment       0x00000057       0x58 /home/pi/github/inferno-pico/Pico/arm/lib/libmath.a(gfltconv.o)
 .comment       0x00000057       0x58 /home/pi/github/inferno-pico/Pico/arm/lib/libmath.a(pow10.o)
 .comment       0x00000057       0x58 /home/pi/github/inferno-pico/Pico/arm/lib/libmath.a(e_acos.o)
 .comment       0x00000057       0x58 /home/pi/github/inferno-pico/Pico/arm/lib/libmath.a(e_acosh.o)
 .comment       0x00000057       0x58 /home/pi/github/inferno-pico/Pico/arm/lib/libmath.a(e_asin.o)
 .comment       0x00000057       0x58 /home/pi/github/inferno-pico/Pico/arm/lib/libmath.a(e_atan2.o)
 .comment       0x00000057       0x58 /home/pi/github/inferno-pico/Pico/arm/lib/libmath.a(e_atanh.o)
 .comment       0x00000057       0x58 /home/pi/github/inferno-pico/Pico/arm/lib/libmath.a(e_cosh.o)
 .comment       0x00000057       0x58 /home/pi/github/inferno-pico/Pico/arm/lib/libmath.a(e_exp.o)
 .comment       0x00000057       0x58 /home/pi/github/inferno-pico/Pico/arm/lib/libmath.a(e_fmod.o)
 .comment       0x00000057       0x58 /home/pi/github/inferno-pico/Pico/arm/lib/libmath.a(e_hypot.o)
 .comment       0x00000057       0x58 /home/pi/github/inferno-pico/Pico/arm/lib/libmath.a(e_j0.o)
 .comment       0x00000057       0x58 /home/pi/github/inferno-pico/Pico/arm/lib/libmath.a(e_j1.o)
 .comment       0x00000057       0x58 /home/pi/github/inferno-pico/Pico/arm/lib/libmath.a(e_jn.o)
 .comment       0x00000057       0x58 /home/pi/github/inferno-pico/Pico/arm/lib/libmath.a(e_lgamma_r.o)
 .comment       0x00000057       0x58 /home/pi/github/inferno-pico/Pico/arm/lib/libmath.a(e_log.o)
 .comment       0x00000057       0x58 /home/pi/github/inferno-pico/Pico/arm/lib/libmath.a(e_log10.o)
 .comment       0x00000057       0x58 /home/pi/github/inferno-pico/Pico/arm/lib/libmath.a(e_pow.o)
 .comment       0x00000057       0x58 /home/pi/github/inferno-pico/Pico/arm/lib/libmath.a(e_remainder.o)
 .comment       0x00000057       0x58 /home/pi/github/inferno-pico/Pico/arm/lib/libmath.a(e_sinh.o)
 .comment       0x00000057       0x58 /home/pi/github/inferno-pico/Pico/arm/lib/libmath.a(e_sqrt.o)
 .comment       0x00000057       0x58 /home/pi/github/inferno-pico/Pico/arm/lib/libmath.a(k_cos.o)
 .comment       0x00000057       0x58 /home/pi/github/inferno-pico/Pico/arm/lib/libmath.a(k_sin.o)
 .comment       0x00000057       0x58 /home/pi/github/inferno-pico/Pico/arm/lib/libmath.a(s_erf.o)
 .comment       0x00000057       0x58 /home/pi/github/inferno-pico/Pico/arm/lib/libmath.a(s_fabs.o)
 .comment       0x00000057       0x58 /home/pi/github/inferno-pico/Pico/arm/lib/libmath.a(s_finite.o)
 .comment       0x00000057       0x58 /home/pi/github/inferno-pico/Pico/arm/lib/libmath.a(s_ilogb.o)
 .comment       0x00000057       0x58 /home/pi/github/inferno-pico/Pico/arm/lib/libmath.a(s_nextafter.o)
 .comment       0x00000057       0x58 /home/pi/github/inferno-pico/Pico/arm/lib/libmath.a(s_rint.o)
 .comment       0x00000057       0x58 /home/pi/github/inferno-pico/Pico/arm/lib/libmath.a(s_scalbn.o)
 .comment       0x00000057       0x58 /home/pi/github/inferno-pico/Pico/arm/lib/libmath.a(g_fmt.o)
 .comment       0x00000057       0x58 /home/pi/github/inferno-pico/Pico/arm/lib/libkern.a(abort.o)
 .comment       0x00000057       0x58 /home/pi/github/inferno-pico/Pico/arm/lib/libkern.a(abs.o)
 .comment       0x00000057       0x58 /home/pi/github/inferno-pico/Pico/arm/lib/libkern.a(atol.o)
 .comment       0x00000057       0x58 /home/pi/github/inferno-pico/Pico/arm/lib/libkern.a(cleanname.o)
 .comment       0x00000057       0x58 /home/pi/github/inferno-pico/Pico/arm/lib/libkern.a(convD2M.o)
 .comment       0x00000057       0x58 /home/pi/github/inferno-pico/Pico/arm/lib/libkern.a(convM2D.o)
 .comment       0x00000057       0x58 /home/pi/github/inferno-pico/Pico/arm/lib/libkern.a(convM2S.o)
 .comment       0x00000057       0x58 /home/pi/github/inferno-pico/Pico/arm/lib/libkern.a(convS2M.o)
 .comment       0x00000057       0x58 /home/pi/github/inferno-pico/Pico/arm/lib/libkern.a(dofmt.o)
 .comment       0x00000057       0x58 /home/pi/github/inferno-pico/Pico/arm/lib/libkern.a(fcallfmt.o)
 .comment       0x00000057       0x58 /home/pi/github/inferno-pico/Pico/arm/lib/libkern.a(fmt.o)
 .comment       0x00000057       0x58 /home/pi/github/inferno-pico/Pico/arm/lib/libkern.a(fmtquote.o)
 .comment       0x00000057       0x58 /home/pi/github/inferno-pico/Pico/arm/lib/libkern.a(memchr.o)
 .comment       0x00000057       0x58 /home/pi/github/inferno-pico/Pico/arm/lib/libkern.a(memcmp.o)
 .comment       0x00000057       0x58 /home/pi/github/inferno-pico/Pico/arm/lib/libkern.a(rune.o)
 .comment       0x00000057       0x58 /home/pi/github/inferno-pico/Pico/arm/lib/libkern.a(seprint.o)
 .comment       0x00000057       0x58 /home/pi/github/inferno-pico/Pico/arm/lib/libkern.a(strcmp.o)
 .comment       0x00000057       0x58 /home/pi/github/inferno-pico/Pico/arm/lib/libkern.a(strcpy.o)
 .comment       0x00000057       0x58 /home/pi/github/inferno-pico/Pico/arm/lib/libkern.a(strdup.o)
 .comment       0x00000057       0x58 /home/pi/github/inferno-pico/Pico/arm/lib/libkern.a(strecpy.o)
 .comment       0x00000057       0x58 /home/pi/github/inferno-pico/Pico/arm/lib/libkern.a(strlen.o)
 .comment       0x00000057       0x58 /home/pi/github/inferno-pico/Pico/arm/lib/libkern.a(strncmp.o)
 .comment       0x00000057       0x58 /home/pi/github/inferno-pico/Pico/arm/lib/libkern.a(strncpy.o)
 .comment       0x00000057       0x58 /home/pi/github/inferno-pico/Pico/arm/lib/libkern.a(strrchr.o)
 .comment       0x00000057       0x58 /home/pi/github/inferno-pico/Pico/arm/lib/libkern.a(strstr.o)
 .comment       0x00000057       0x58 /home/pi/github/inferno-pico/Pico/arm/lib/libkern.a(strtol.o)
 .comment       0x00000057       0x58 /home/pi/github/inferno-pico/Pico/arm/lib/libkern.a(strtoll.o)
 .comment       0x00000057       0x58 /home/pi/github/inferno-pico/Pico/arm/lib/libkern.a(strtoul.o)
 .comment       0x00000057       0x58 /home/pi/github/inferno-pico/Pico/arm/lib/libkern.a(tokenize.o)
 .comment       0x00000057       0x58 /home/pi/github/inferno-pico/Pico/arm/lib/libkern.a(utflen.o)
 .comment       0x00000057       0x58 /home/pi/github/inferno-pico/Pico/arm/lib/libkern.a(utfnlen.o)
 .comment       0x00000057       0x58 /home/pi/github/inferno-pico/Pico/arm/lib/libkern.a(utfrune.o)
 .comment       0x00000057       0x58 /home/pi/github/inferno-pico/Pico/arm/lib/libkern.a(vseprint.o)
 .comment       0x00000057       0x58 /home/pi/github/inferno-pico/Pico/arm/lib/libkern.a(frexp-arm.o)
 .comment       0x00000057       0x58 /home/pi/github/inferno-pico/Pico/arm/lib/libkern.a(nan-arm.o)
 .comment       0x00000057       0x58 /home/pi/github/inferno-pico/Pico/arm/lib/libkern.a(memccpy.o)
 .comment       0x00000057       0x58 /home/pi/github/inferno-pico/Pico/arm/lib/libpico.a(clocks.o)
 .comment       0x00000057       0x58 /home/pi/github/inferno-pico/Pico/arm/lib/libpico.a(gpio.o)
 .comment       0x00000057       0x58 /home/pi/github/inferno-pico/Pico/arm/lib/libpico.a(irq.o)
 .comment       0x00000057       0x58 /home/pi/github/inferno-pico/Pico/arm/lib/libpico.a(pico_malloc.o)
 .comment       0x00000057       0x58 /home/pi/github/inferno-pico/Pico/arm/lib/libpico.a(platform.o)
 .comment       0x00000057       0x58 /home/pi/github/inferno-pico/Pico/arm/lib/libpico.a(pll.o)
 .comment       0x00000057       0x58 /home/pi/github/inferno-pico/Pico/arm/lib/libpico.a(runtime.o)
 .comment       0x00000057       0x58 /home/pi/github/inferno-pico/Pico/arm/lib/libpico.a(stdio.o)
 .comment       0x00000057       0x58 /home/pi/github/inferno-pico/Pico/arm/lib/libpico.a(stdio_uart.o)
 .comment       0x00000057       0x58 /home/pi/github/inferno-pico/Pico/arm/lib/libpico.a(sync.o)
 .comment       0x00000057       0x58 /home/pi/github/inferno-pico/Pico/arm/lib/libpico.a(time.o)
 .comment       0x00000057       0x58 /home/pi/github/inferno-pico/Pico/arm/lib/libpico.a(timer.o)
 .comment       0x00000057       0x58 /home/pi/github/inferno-pico/Pico/arm/lib/libpico.a(uart.o)
 .comment       0x00000057       0x58 /home/pi/github/inferno-pico/Pico/arm/lib/libpico.a(unique_id.o)
 .comment       0x00000057       0x58 /home/pi/github/inferno-pico/Pico/arm/lib/libpico.a(watchdog.o)
 .comment       0x00000057       0x58 /home/pi/github/inferno-pico/Pico/arm/lib/libpico.a(xosc.o)
 .comment       0x00000057       0x58 /home/pi/github/inferno-pico/Pico/arm/lib/libpico.a(bootrom.o)
 .comment       0x00000057       0x58 /home/pi/github/inferno-pico/Pico/arm/lib/libpico.a(claim.o)
 .comment       0x00000057       0x58 /home/pi/github/inferno-pico/Pico/arm/lib/libpico.a(flash.o)
 .comment       0x00000057       0x58 /home/pi/github/inferno-pico/Pico/arm/lib/libpico.a(lock_core.o)
 .comment       0x00000057       0x58 /home/pi/github/inferno-pico/Pico/arm/lib/libpico.a(mutex.o)
 .comment       0x00000057       0x58 /home/pi/github/inferno-pico/Pico/arm/lib/libpico.a(pheap.o)
 .comment       0x00000057       0x58 /home/pi/github/inferno-pico/Pico/arm/lib/libpico.a(printf.o)
 .comment       0x00000057       0x57 /usr/lib/gcc/arm-none-eabi/7.3.1/../../../arm-none-eabi/lib/thumb/v6-m/libg.a(lib_a-memmove.o)
                                 0x58 (size before relaxing)
 .comment       0x000000ae       0x58 /usr/lib/gcc/arm-none-eabi/7.3.1/../../../arm-none-eabi/lib/thumb/v6-m/libg.a(lib_a-strchr.o)
 .comment       0x000000ae       0x58 /usr/lib/gcc/arm-none-eabi/7.3.1/thumb/v6-m/crtend.o

.debug_info     0x00000000    0xad5d2
 .debug_info    0x00000000     0x2159 main.o
 .debug_info    0x00002159       0x26 armv6.o
 .debug_info    0x0000217f     0x211a devroot.o
 .debug_info    0x00004299     0x467c devcons.o
 .debug_info    0x00008915     0x27ca devenv.o
 .debug_info    0x0000b0df     0x42c1 devmnt.o
 .debug_info    0x0000f3a0     0x34c8 devpipe.o
 .debug_info    0x00012868     0x5c60 devprog.o
 .debug_info    0x000184c8     0x495e devsrv.o
 .debug_info    0x0001ce26     0x227a devdup.o
 .debug_info    0x0001f0a0     0x25ad archpico.o
 .debug_info    0x0002164d     0x18b5 alarm.o
 .debug_info    0x00022f02     0x3e72 alloc.o
 .debug_info    0x00026d74     0x1f6a allocb.o
 .debug_info    0x00028cde     0x3e0e chan.o
 .debug_info    0x0002caec     0x215c portclock.o
 .debug_info    0x0002ec48     0x2b50 dev.o
 .debug_info    0x00031798     0x2c06 dial.o
 .debug_info    0x0003439e     0x4a7d dis.o
 .debug_info    0x00038e1b     0x327b exception.o
 .debug_info    0x0003c096     0x48e2 exportfs.o
 .debug_info    0x00040978     0x5fec inferno.o
 .debug_info    0x00046964      0x18d latin1.o
 .debug_info    0x00046af1       0xf0 mul64fract.o
 .debug_info    0x00046be1     0x1c26 nocache.o
 .debug_info    0x00048807     0x1cb8 nodynld.o
 .debug_info    0x0004a4bf     0x1ec6 parse.o
 .debug_info    0x0004c385     0x2382 pgrp.o
 .debug_info    0x0004e707     0x19b3 print.o
 .debug_info    0x000500ba     0x3d63 proc.o
 .debug_info    0x00053e1d     0x3afe qio.o
 .debug_info    0x0005791b     0x1bfd qlock.o
 .debug_info    0x00059518     0x1c24 random.o
 .debug_info    0x0005b13c     0x4421 sysfile.o
 .debug_info    0x0005f55d     0x1f17 taslock.o
 .debug_info    0x00061474     0x201f tod.o
 .debug_info    0x00063493     0x1e5c xalloc.o
 .debug_info    0x000652ef     0x1f21 dump.o
 .debug_info    0x00067210      0x2ab pico.root.o
 .debug_info    0x000674bb     0x2665 pico.o
 .debug_info    0x00069b20     0x1370 /home/pi/github/inferno-pico/Pico/arm/lib/libinterp.a(alt.o)
 .debug_info    0x0006ae90     0x5746 /home/pi/github/inferno-pico/Pico/arm/lib/libinterp.a(comp-arm.o)
 .debug_info    0x000705d6     0x136c /home/pi/github/inferno-pico/Pico/arm/lib/libinterp.a(conv.o)
 .debug_info    0x00071942     0x1f77 /home/pi/github/inferno-pico/Pico/arm/lib/libinterp.a(dec.o)
 .debug_info    0x000738b9     0x15bb /home/pi/github/inferno-pico/Pico/arm/lib/libinterp.a(gc.o)
 .debug_info    0x00074e74     0x21d0 /home/pi/github/inferno-pico/Pico/arm/lib/libinterp.a(heap.o)
 .debug_info    0x00077044     0x1042 /home/pi/github/inferno-pico/Pico/arm/lib/libinterp.a(link.o)
 .debug_info    0x00078086     0x20b2 /home/pi/github/inferno-pico/Pico/arm/lib/libinterp.a(load.o)
 .debug_info    0x0007a138     0x424d /home/pi/github/inferno-pico/Pico/arm/lib/libinterp.a(math.o)
 .debug_info    0x0007e385      0x292 /home/pi/github/inferno-pico/Pico/arm/lib/libinterp.a(raise.o)
 .debug_info    0x0007e617      0xd2d /home/pi/github/inferno-pico/Pico/arm/lib/libinterp.a(readmod.o)
 .debug_info    0x0007f344     0x240b /home/pi/github/inferno-pico/Pico/arm/lib/libinterp.a(runt.o)
 .debug_info    0x0008174f      0xa92 /home/pi/github/inferno-pico/Pico/arm/lib/libinterp.a(sign.o)
 .debug_info    0x000821e1     0x1160 /home/pi/github/inferno-pico/Pico/arm/lib/libinterp.a(stack.o)
 .debug_info    0x00083341     0x3ece /home/pi/github/inferno-pico/Pico/arm/lib/libinterp.a(xec.o)
 .debug_info    0x0008720f      0xb1f /home/pi/github/inferno-pico/Pico/arm/lib/libinterp.a(das-arm.o)
 .debug_info    0x00087d2e     0x1a21 /home/pi/github/inferno-pico/Pico/arm/lib/libinterp.a(string.o)
 .debug_info    0x0008974f      0xd24 /home/pi/github/inferno-pico/Pico/arm/lib/libinterp.a(dlm-Pico.o)
 .debug_info    0x0008a473      0x225 /home/pi/github/inferno-pico/Pico/arm/lib/libmath.a(blas.o)
 .debug_info    0x0008a698     0x1c0a /home/pi/github/inferno-pico/Pico/arm/lib/libmath.a(dtoa.o)
 .debug_info    0x0008c2a2      0x13d /home/pi/github/inferno-pico/Pico/arm/lib/libmath.a(fdim.o)
 .debug_info    0x0008c3df      0x2ba /home/pi/github/inferno-pico/Pico/arm/lib/libmath.a(FPcontrol-Pico.o)
 .debug_info    0x0008c699      0x216 /home/pi/github/inferno-pico/Pico/arm/lib/libmath.a(gemm.o)
 .debug_info    0x0008c8af      0x4e9 /home/pi/github/inferno-pico/Pico/arm/lib/libmath.a(gfltconv.o)
 .debug_info    0x0008cd98       0xe1 /home/pi/github/inferno-pico/Pico/arm/lib/libmath.a(pow10.o)
 .debug_info    0x0008ce79      0x29c /home/pi/github/inferno-pico/Pico/arm/lib/libmath.a(e_acos.o)
 .debug_info    0x0008d115      0x162 /home/pi/github/inferno-pico/Pico/arm/lib/libmath.a(e_acosh.o)
 .debug_info    0x0008d277      0x29b /home/pi/github/inferno-pico/Pico/arm/lib/libmath.a(e_asin.o)
 .debug_info    0x0008d512      0x200 /home/pi/github/inferno-pico/Pico/arm/lib/libmath.a(e_atan2.o)
 .debug_info    0x0008d712      0x158 /home/pi/github/inferno-pico/Pico/arm/lib/libmath.a(e_atanh.o)
 .debug_info    0x0008d86a      0x1ac /home/pi/github/inferno-pico/Pico/arm/lib/libmath.a(e_cosh.o)
 .debug_info    0x0008da16      0x258 /home/pi/github/inferno-pico/Pico/arm/lib/libmath.a(e_exp.o)
 .debug_info    0x0008dc6e      0x1ac /home/pi/github/inferno-pico/Pico/arm/lib/libmath.a(e_fmod.o)
 .debug_info    0x0008de1a      0x187 /home/pi/github/inferno-pico/Pico/arm/lib/libmath.a(e_hypot.o)
 .debug_info    0x0008dfa1      0x72f /home/pi/github/inferno-pico/Pico/arm/lib/libmath.a(e_j0.o)
 .debug_info    0x0008e6d0      0x6f6 /home/pi/github/inferno-pico/Pico/arm/lib/libmath.a(e_j1.o)
 .debug_info    0x0008edc6      0x46c /home/pi/github/inferno-pico/Pico/arm/lib/libmath.a(e_jn.o)
 .debug_info    0x0008f232      0x7ed /home/pi/github/inferno-pico/Pico/arm/lib/libmath.a(e_lgamma_r.o)
 .debug_info    0x0008fa1f      0x25d /home/pi/github/inferno-pico/Pico/arm/lib/libmath.a(e_log.o)
 .debug_info    0x0008fc7c      0x196 /home/pi/github/inferno-pico/Pico/arm/lib/libmath.a(e_log10.o)
 .debug_info    0x0008fe12      0x52f /home/pi/github/inferno-pico/Pico/arm/lib/libmath.a(e_pow.o)
 .debug_info    0x00090341      0x178 /home/pi/github/inferno-pico/Pico/arm/lib/libmath.a(e_remainder.o)
 .debug_info    0x000904b9      0x1a4 /home/pi/github/inferno-pico/Pico/arm/lib/libmath.a(e_sinh.o)
 .debug_info    0x0009065d      0x1a8 /home/pi/github/inferno-pico/Pico/arm/lib/libmath.a(e_sqrt.o)
 .debug_info    0x00090805      0x1b0 /home/pi/github/inferno-pico/Pico/arm/lib/libmath.a(k_cos.o)
 .debug_info    0x000909b5      0x1a2 /home/pi/github/inferno-pico/Pico/arm/lib/libmath.a(k_sin.o)
 .debug_info    0x00090b57      0x719 /home/pi/github/inferno-pico/Pico/arm/lib/libmath.a(s_erf.o)
 .debug_info    0x00091270       0xc8 /home/pi/github/inferno-pico/Pico/arm/lib/libmath.a(s_fabs.o)
 .debug_info    0x00091338       0xd4 /home/pi/github/inferno-pico/Pico/arm/lib/libmath.a(s_finite.o)
 .debug_info    0x0009140c       0xf0 /home/pi/github/inferno-pico/Pico/arm/lib/libmath.a(s_ilogb.o)
 .debug_info    0x000914fc      0x129 /home/pi/github/inferno-pico/Pico/arm/lib/libmath.a(s_nextafter.o)
 .debug_info    0x00091625      0x166 /home/pi/github/inferno-pico/Pico/arm/lib/libmath.a(s_rint.o)
 .debug_info    0x0009178b      0x17d /home/pi/github/inferno-pico/Pico/arm/lib/libmath.a(s_scalbn.o)
 .debug_info    0x00091908      0x15a /home/pi/github/inferno-pico/Pico/arm/lib/libmath.a(g_fmt.o)
 .debug_info    0x00091a62       0xb6 /home/pi/github/inferno-pico/Pico/arm/lib/libkern.a(abort.o)
 .debug_info    0x00091b18       0xef /home/pi/github/inferno-pico/Pico/arm/lib/libkern.a(abs.o)
 .debug_info    0x00091c07      0x11a /home/pi/github/inferno-pico/Pico/arm/lib/libkern.a(atol.o)
 .debug_info    0x00091d21      0x155 /home/pi/github/inferno-pico/Pico/arm/lib/libkern.a(cleanname.o)
 .debug_info    0x00091e76      0x362 /home/pi/github/inferno-pico/Pico/arm/lib/libkern.a(convD2M.o)
 .debug_info    0x000921d8      0x322 /home/pi/github/inferno-pico/Pico/arm/lib/libkern.a(convM2D.o)
 .debug_info    0x000924fa      0x629 /home/pi/github/inferno-pico/Pico/arm/lib/libkern.a(convM2S.o)
 .debug_info    0x00092b23      0x6a8 /home/pi/github/inferno-pico/Pico/arm/lib/libkern.a(convS2M.o)
 .debug_info    0x000931cb      0xe1b /home/pi/github/inferno-pico/Pico/arm/lib/libkern.a(dofmt.o)
 .debug_info    0x00093fe6      0xf52 /home/pi/github/inferno-pico/Pico/arm/lib/libkern.a(fcallfmt.o)
 .debug_info    0x00094f38      0x459 /home/pi/github/inferno-pico/Pico/arm/lib/libkern.a(fmt.o)
 .debug_info    0x00095391      0xa14 /home/pi/github/inferno-pico/Pico/arm/lib/libkern.a(fmtquote.o)
 .debug_info    0x00095da5      0x113 /home/pi/github/inferno-pico/Pico/arm/lib/libkern.a(memchr.o)
 .debug_info    0x00095eb8      0x149 /home/pi/github/inferno-pico/Pico/arm/lib/libkern.a(memcmp.o)
 .debug_info    0x00096001      0x32e /home/pi/github/inferno-pico/Pico/arm/lib/libkern.a(rune.o)
 .debug_info    0x0009632f      0x139 /home/pi/github/inferno-pico/Pico/arm/lib/libkern.a(seprint.o)
 .debug_info    0x00096468       0xef /home/pi/github/inferno-pico/Pico/arm/lib/libkern.a(strcmp.o)
 .debug_info    0x00096557      0x117 /home/pi/github/inferno-pico/Pico/arm/lib/libkern.a(strcpy.o)
 .debug_info    0x0009666e      0x128 /home/pi/github/inferno-pico/Pico/arm/lib/libkern.a(strdup.o)
 .debug_info    0x00096796      0x114 /home/pi/github/inferno-pico/Pico/arm/lib/libkern.a(strecpy.o)
 .debug_info    0x000968aa       0xec /home/pi/github/inferno-pico/Pico/arm/lib/libkern.a(strlen.o)
 .debug_info    0x00096996      0x100 /home/pi/github/inferno-pico/Pico/arm/lib/libkern.a(strncmp.o)
 .debug_info    0x00096a96       0xfc /home/pi/github/inferno-pico/Pico/arm/lib/libkern.a(strncpy.o)
 .debug_info    0x00096b92      0x114 /home/pi/github/inferno-pico/Pico/arm/lib/libkern.a(strrchr.o)
 .debug_info    0x00096ca6      0x187 /home/pi/github/inferno-pico/Pico/arm/lib/libkern.a(strstr.o)
 .debug_info    0x00096e2d      0x16a /home/pi/github/inferno-pico/Pico/arm/lib/libkern.a(strtol.o)
 .debug_info    0x00096f97      0x165 /home/pi/github/inferno-pico/Pico/arm/lib/libkern.a(strtoll.o)
 .debug_info    0x000970fc      0x184 /home/pi/github/inferno-pico/Pico/arm/lib/libkern.a(strtoul.o)
 .debug_info    0x00097280      0x29f /home/pi/github/inferno-pico/Pico/arm/lib/libkern.a(tokenize.o)
 .debug_info    0x0009751f      0x16f /home/pi/github/inferno-pico/Pico/arm/lib/libkern.a(utflen.o)
 .debug_info    0x0009768e      0x1b2 /home/pi/github/inferno-pico/Pico/arm/lib/libkern.a(utfnlen.o)
 .debug_info    0x00097840      0x18f /home/pi/github/inferno-pico/Pico/arm/lib/libkern.a(utfrune.o)
 .debug_info    0x000979cf      0x20a /home/pi/github/inferno-pico/Pico/arm/lib/libkern.a(vseprint.o)
 .debug_info    0x00097bd9      0x1fb /home/pi/github/inferno-pico/Pico/arm/lib/libkern.a(frexp-arm.o)
 .debug_info    0x00097dd4      0x1f2 /home/pi/github/inferno-pico/Pico/arm/lib/libkern.a(nan-arm.o)
 .debug_info    0x00097fc6      0x12f /home/pi/github/inferno-pico/Pico/arm/lib/libkern.a(memccpy.o)
 .debug_info    0x000980f5      0xd7a /home/pi/github/inferno-pico/Pico/arm/lib/libpico.a(clocks.o)
 .debug_info    0x00098e6f       0x22 /home/pi/github/inferno-pico/Pico/arm/lib/libpico.a(crt0.o)
 .debug_info    0x00098e91       0x26 /home/pi/github/inferno-pico/Pico/arm/lib/libpico.a(double_none.o)
 .debug_info    0x00098eb7       0x26 /home/pi/github/inferno-pico/Pico/arm/lib/libpico.a(float_none.o)
 .debug_info    0x00098edd     0x1194 /home/pi/github/inferno-pico/Pico/arm/lib/libpico.a(gpio.o)
 .debug_info    0x0009a071     0x15fe /home/pi/github/inferno-pico/Pico/arm/lib/libpico.a(irq.o)
 .debug_info    0x0009b66f       0x26 /home/pi/github/inferno-pico/Pico/arm/lib/libpico.a(irq_handler_chain.o)
 .debug_info    0x0009b695       0x22 /home/pi/github/inferno-pico/Pico/arm/lib/libpico.a(mem_ops_aeabi.o)
 .debug_info    0x0009b6b7       0x22 /home/pi/github/inferno-pico/Pico/arm/lib/libpico.a(pico_divider.o)
 .debug_info    0x0009b6d9      0xa52 /home/pi/github/inferno-pico/Pico/arm/lib/libpico.a(pico_malloc.o)
 .debug_info    0x0009c12b      0x1c6 /home/pi/github/inferno-pico/Pico/arm/lib/libpico.a(platform.o)
 .debug_info    0x0009c2f1      0x464 /home/pi/github/inferno-pico/Pico/arm/lib/libpico.a(pll.o)
 .debug_info    0x0009c755      0xa16 /home/pi/github/inferno-pico/Pico/arm/lib/libpico.a(runtime.o)
 .debug_info    0x0009d16b     0x1906 /home/pi/github/inferno-pico/Pico/arm/lib/libpico.a(stdio.o)
 .debug_info    0x0009ea71      0xb26 /home/pi/github/inferno-pico/Pico/arm/lib/libpico.a(stdio_uart.o)
 .debug_info    0x0009f597      0x508 /home/pi/github/inferno-pico/Pico/arm/lib/libpico.a(sync.o)
 .debug_info    0x0009fa9f     0x3ab7 /home/pi/github/inferno-pico/Pico/arm/lib/libpico.a(time.o)
 .debug_info    0x000a3556      0xe63 /home/pi/github/inferno-pico/Pico/arm/lib/libpico.a(timer.o)
 .debug_info    0x000a43b9      0xa11 /home/pi/github/inferno-pico/Pico/arm/lib/libpico.a(uart.o)
 .debug_info    0x000a4dca      0x235 /home/pi/github/inferno-pico/Pico/arm/lib/libpico.a(unique_id.o)
 .debug_info    0x000a4fff      0x446 /home/pi/github/inferno-pico/Pico/arm/lib/libpico.a(watchdog.o)
 .debug_info    0x000a5445      0x1b2 /home/pi/github/inferno-pico/Pico/arm/lib/libpico.a(xosc.o)
 .debug_info    0x000a55f7       0x26 /home/pi/github/inferno-pico/Pico/arm/lib/libpico.a(pico_int64_ops_aeabi.o)
 .debug_info    0x000a561d      0x23e /home/pi/github/inferno-pico/Pico/arm/lib/libpico.a(bootrom.o)
 .debug_info    0x000a585b      0x5d8 /home/pi/github/inferno-pico/Pico/arm/lib/libpico.a(claim.o)
 .debug_info    0x000a5e33      0xdaf /home/pi/github/inferno-pico/Pico/arm/lib/libpico.a(flash.o)
 .debug_info    0x000a6be2      0x1e8 /home/pi/github/inferno-pico/Pico/arm/lib/libpico.a(lock_core.o)
 .debug_info    0x000a6dca     0x1a8a /home/pi/github/inferno-pico/Pico/arm/lib/libpico.a(mutex.o)
 .debug_info    0x000a8854     0x1889 /home/pi/github/inferno-pico/Pico/arm/lib/libpico.a(pheap.o)
 .debug_info    0x000aa0dd     0x1d89 /home/pi/github/inferno-pico/Pico/arm/lib/libpico.a(printf.o)
 .debug_info    0x000abe66       0x26 /usr/lib/gcc/arm-none-eabi/7.3.1/thumb/v6-m/libgcc.a(_dvmd_tls.o)
 .debug_info    0x000abe8c      0xe31 /usr/lib/gcc/arm-none-eabi/7.3.1/../../../arm-none-eabi/lib/thumb/v6-m/libg.a(lib_a-memmove.o)
 .debug_info    0x000accbd      0x915 /usr/lib/gcc/arm-none-eabi/7.3.1/../../../arm-none-eabi/lib/thumb/v6-m/libg.a(lib_a-strchr.o)

.debug_abbrev   0x00000000    0x14c03
 .debug_abbrev  0x00000000      0x3a4 main.o
 .debug_abbrev  0x000003a4       0x14 armv6.o
 .debug_abbrev  0x000003b8      0x32c devroot.o
 .debug_abbrev  0x000006e4      0x54e devcons.o
 .debug_abbrev  0x00000c32      0x3ce devenv.o
 .debug_abbrev  0x00001000      0x443 devmnt.o
 .debug_abbrev  0x00001443      0x3de devpipe.o
 .debug_abbrev  0x00001821      0x4c7 devprog.o
 .debug_abbrev  0x00001ce8      0x455 devsrv.o
 .debug_abbrev  0x0000213d      0x35f devdup.o
 .debug_abbrev  0x0000249c      0x4e6 archpico.o
 .debug_abbrev  0x00002982      0x2c7 alarm.o
 .debug_abbrev  0x00002c49      0x503 alloc.o
 .debug_abbrev  0x0000314c      0x383 allocb.o
 .debug_abbrev  0x000034cf      0x4d2 chan.o
 .debug_abbrev  0x000039a1      0x3a7 portclock.o
 .debug_abbrev  0x00003d48      0x44b dev.o
 .debug_abbrev  0x00004193      0x3be dial.o
 .debug_abbrev  0x00004551      0x50e dis.o
 .debug_abbrev  0x00004a5f      0x3a7 exception.o
 .debug_abbrev  0x00004e06      0x467 exportfs.o
 .debug_abbrev  0x0000526d      0x465 inferno.o
 .debug_abbrev  0x000056d2       0xe7 latin1.o
 .debug_abbrev  0x000057b9       0x89 mul64fract.o
 .debug_abbrev  0x00005842      0x2bd nocache.o
 .debug_abbrev  0x00005aff      0x2bd nodynld.o
 .debug_abbrev  0x00005dbc      0x333 parse.o
 .debug_abbrev  0x000060ef      0x39e pgrp.o
 .debug_abbrev  0x0000648d      0x2cd print.o
 .debug_abbrev  0x0000675a      0x543 proc.o
 .debug_abbrev  0x00006c9d      0x4b5 qio.o
 .debug_abbrev  0x00007152      0x33c qlock.o
 .debug_abbrev  0x0000748e      0x34b random.o
 .debug_abbrev  0x000077d9      0x427 sysfile.o
 .debug_abbrev  0x00007c00      0x35d taslock.o
 .debug_abbrev  0x00007f5d      0x382 tod.o
 .debug_abbrev  0x000082df      0x331 xalloc.o
 .debug_abbrev  0x00008610      0x37c dump.o
 .debug_abbrev  0x0000898c       0x63 pico.root.o
 .debug_abbrev  0x000089ef      0x2b2 pico.o
 .debug_abbrev  0x00008ca1      0x300 /home/pi/github/inferno-pico/Pico/arm/lib/libinterp.a(alt.o)
 .debug_abbrev  0x00008fa1      0x3e0 /home/pi/github/inferno-pico/Pico/arm/lib/libinterp.a(comp-arm.o)
 .debug_abbrev  0x00009381      0x26a /home/pi/github/inferno-pico/Pico/arm/lib/libinterp.a(conv.o)
 .debug_abbrev  0x000095eb      0x1f3 /home/pi/github/inferno-pico/Pico/arm/lib/libinterp.a(dec.o)
 .debug_abbrev  0x000097de      0x387 /home/pi/github/inferno-pico/Pico/arm/lib/libinterp.a(gc.o)
 .debug_abbrev  0x00009b65      0x3ba /home/pi/github/inferno-pico/Pico/arm/lib/libinterp.a(heap.o)
 .debug_abbrev  0x00009f1f      0x2e3 /home/pi/github/inferno-pico/Pico/arm/lib/libinterp.a(link.o)
 .debug_abbrev  0x0000a202      0x359 /home/pi/github/inferno-pico/Pico/arm/lib/libinterp.a(load.o)
 .debug_abbrev  0x0000a55b      0x38c /home/pi/github/inferno-pico/Pico/arm/lib/libinterp.a(math.o)
 .debug_abbrev  0x0000a8e7       0x3e /home/pi/github/inferno-pico/Pico/arm/lib/libinterp.a(raise.o)
 .debug_abbrev  0x0000a925      0x24d /home/pi/github/inferno-pico/Pico/arm/lib/libinterp.a(readmod.o)
 .debug_abbrev  0x0000ab72      0x3a0 /home/pi/github/inferno-pico/Pico/arm/lib/libinterp.a(runt.o)
 .debug_abbrev  0x0000af12      0x1fa /home/pi/github/inferno-pico/Pico/arm/lib/libinterp.a(sign.o)
 .debug_abbrev  0x0000b10c      0x23c /home/pi/github/inferno-pico/Pico/arm/lib/libinterp.a(stack.o)
 .debug_abbrev  0x0000b348      0x433 /home/pi/github/inferno-pico/Pico/arm/lib/libinterp.a(xec.o)
 .debug_abbrev  0x0000b77b      0x245 /home/pi/github/inferno-pico/Pico/arm/lib/libinterp.a(das-arm.o)
 .debug_abbrev  0x0000b9c0      0x33f /home/pi/github/inferno-pico/Pico/arm/lib/libinterp.a(string.o)
 .debug_abbrev  0x0000bcff      0x1fa /home/pi/github/inferno-pico/Pico/arm/lib/libinterp.a(dlm-Pico.o)
 .debug_abbrev  0x0000bef9       0xea /home/pi/github/inferno-pico/Pico/arm/lib/libmath.a(blas.o)
 .debug_abbrev  0x0000bfe3      0x2a7 /home/pi/github/inferno-pico/Pico/arm/lib/libmath.a(dtoa.o)
 .debug_abbrev  0x0000c28a       0xac /home/pi/github/inferno-pico/Pico/arm/lib/libmath.a(fdim.o)
 .debug_abbrev  0x0000c336      0x149 /home/pi/github/inferno-pico/Pico/arm/lib/libmath.a(FPcontrol-Pico.o)
 .debug_abbrev  0x0000c47f       0xe8 /home/pi/github/inferno-pico/Pico/arm/lib/libmath.a(gemm.o)
 .debug_abbrev  0x0000c567      0x18f /home/pi/github/inferno-pico/Pico/arm/lib/libmath.a(gfltconv.o)
 .debug_abbrev  0x0000c6f6       0xae /home/pi/github/inferno-pico/Pico/arm/lib/libmath.a(pow10.o)
 .debug_abbrev  0x0000c7a4      0x10a /home/pi/github/inferno-pico/Pico/arm/lib/libmath.a(e_acos.o)
 .debug_abbrev  0x0000c8ae       0xd3 /home/pi/github/inferno-pico/Pico/arm/lib/libmath.a(e_acosh.o)
 .debug_abbrev  0x0000c981       0xf1 /home/pi/github/inferno-pico/Pico/arm/lib/libmath.a(e_asin.o)
 .debug_abbrev  0x0000ca72       0xf1 /home/pi/github/inferno-pico/Pico/arm/lib/libmath.a(e_atan2.o)
 .debug_abbrev  0x0000cb63       0xef /home/pi/github/inferno-pico/Pico/arm/lib/libmath.a(e_atanh.o)
 .debug_abbrev  0x0000cc52       0xe2 /home/pi/github/inferno-pico/Pico/arm/lib/libmath.a(e_cosh.o)
 .debug_abbrev  0x0000cd34       0xf4 /home/pi/github/inferno-pico/Pico/arm/lib/libmath.a(e_exp.o)
 .debug_abbrev  0x0000ce28       0xd6 /home/pi/github/inferno-pico/Pico/arm/lib/libmath.a(e_fmod.o)
 .debug_abbrev  0x0000cefe       0xcc /home/pi/github/inferno-pico/Pico/arm/lib/libmath.a(e_hypot.o)
 .debug_abbrev  0x0000cfca      0x18c /home/pi/github/inferno-pico/Pico/arm/lib/libmath.a(e_j0.o)
 .debug_abbrev  0x0000d156      0x18c /home/pi/github/inferno-pico/Pico/arm/lib/libmath.a(e_j1.o)
 .debug_abbrev  0x0000d2e2      0x13e /home/pi/github/inferno-pico/Pico/arm/lib/libmath.a(e_jn.o)
 .debug_abbrev  0x0000d420      0x14b /home/pi/github/inferno-pico/Pico/arm/lib/libmath.a(e_lgamma_r.o)
 .debug_abbrev  0x0000d56b       0xe0 /home/pi/github/inferno-pico/Pico/arm/lib/libmath.a(e_log.o)
 .debug_abbrev  0x0000d64b       0xef /home/pi/github/inferno-pico/Pico/arm/lib/libmath.a(e_log10.o)
 .debug_abbrev  0x0000d73a      0x141 /home/pi/github/inferno-pico/Pico/arm/lib/libmath.a(e_pow.o)
 .debug_abbrev  0x0000d87b       0xe2 /home/pi/github/inferno-pico/Pico/arm/lib/libmath.a(e_remainder.o)
 .debug_abbrev  0x0000d95d       0xf1 /home/pi/github/inferno-pico/Pico/arm/lib/libmath.a(e_sinh.o)
 .debug_abbrev  0x0000da4e       0xe2 /home/pi/github/inferno-pico/Pico/arm/lib/libmath.a(e_sqrt.o)
 .debug_abbrev  0x0000db30       0xc4 /home/pi/github/inferno-pico/Pico/arm/lib/libmath.a(k_cos.o)
 .debug_abbrev  0x0000dbf4       0xd3 /home/pi/github/inferno-pico/Pico/arm/lib/libmath.a(k_sin.o)
 .debug_abbrev  0x0000dcc7      0x10d /home/pi/github/inferno-pico/Pico/arm/lib/libmath.a(s_erf.o)
 .debug_abbrev  0x0000ddd4       0x90 /home/pi/github/inferno-pico/Pico/arm/lib/libmath.a(s_fabs.o)
 .debug_abbrev  0x0000de64       0x9f /home/pi/github/inferno-pico/Pico/arm/lib/libmath.a(s_finite.o)
 .debug_abbrev  0x0000df03       0xae /home/pi/github/inferno-pico/Pico/arm/lib/libmath.a(s_ilogb.o)
 .debug_abbrev  0x0000dfb1       0x9f /home/pi/github/inferno-pico/Pico/arm/lib/libmath.a(s_nextafter.o)
 .debug_abbrev  0x0000e050       0xf0 /home/pi/github/inferno-pico/Pico/arm/lib/libmath.a(s_rint.o)
 .debug_abbrev  0x0000e140       0xd3 /home/pi/github/inferno-pico/Pico/arm/lib/libmath.a(s_scalbn.o)
 .debug_abbrev  0x0000e213       0xdc /home/pi/github/inferno-pico/Pico/arm/lib/libmath.a(g_fmt.o)
 .debug_abbrev  0x0000e2ef       0x7f /home/pi/github/inferno-pico/Pico/arm/lib/libkern.a(abort.o)
 .debug_abbrev  0x0000e36e       0xac /home/pi/github/inferno-pico/Pico/arm/lib/libkern.a(abs.o)
 .debug_abbrev  0x0000e41a       0xd2 /home/pi/github/inferno-pico/Pico/arm/lib/libkern.a(atol.o)
 .debug_abbrev  0x0000e4ec       0xe5 /home/pi/github/inferno-pico/Pico/arm/lib/libkern.a(cleanname.o)
 .debug_abbrev  0x0000e5d1      0x15c /home/pi/github/inferno-pico/Pico/arm/lib/libkern.a(convD2M.o)
 .debug_abbrev  0x0000e72d      0x16b /home/pi/github/inferno-pico/Pico/arm/lib/libkern.a(convM2D.o)
 .debug_abbrev  0x0000e898      0x1ae /home/pi/github/inferno-pico/Pico/arm/lib/libkern.a(convM2S.o)
 .debug_abbrev  0x0000ea46      0x1b9 /home/pi/github/inferno-pico/Pico/arm/lib/libkern.a(convS2M.o)
 .debug_abbrev  0x0000ebff      0x220 /home/pi/github/inferno-pico/Pico/arm/lib/libkern.a(dofmt.o)
 .debug_abbrev  0x0000ee1f      0x21f /home/pi/github/inferno-pico/Pico/arm/lib/libkern.a(fcallfmt.o)
 .debug_abbrev  0x0000f03e      0x1e8 /home/pi/github/inferno-pico/Pico/arm/lib/libkern.a(fmt.o)
 .debug_abbrev  0x0000f226      0x233 /home/pi/github/inferno-pico/Pico/arm/lib/libkern.a(fmtquote.o)
 .debug_abbrev  0x0000f459       0xb5 /home/pi/github/inferno-pico/Pico/arm/lib/libkern.a(memchr.o)
 .debug_abbrev  0x0000f50e       0xb5 /home/pi/github/inferno-pico/Pico/arm/lib/libkern.a(memcmp.o)
 .debug_abbrev  0x0000f5c3      0x165 /home/pi/github/inferno-pico/Pico/arm/lib/libkern.a(rune.o)
 .debug_abbrev  0x0000f728       0xea /home/pi/github/inferno-pico/Pico/arm/lib/libkern.a(seprint.o)
 .debug_abbrev  0x0000f812       0x9f /home/pi/github/inferno-pico/Pico/arm/lib/libkern.a(strcmp.o)
 .debug_abbrev  0x0000f8b1       0xc9 /home/pi/github/inferno-pico/Pico/arm/lib/libkern.a(strcpy.o)
 .debug_abbrev  0x0000f97a       0xe1 /home/pi/github/inferno-pico/Pico/arm/lib/libkern.a(strdup.o)
 .debug_abbrev  0x0000fa5b       0xc9 /home/pi/github/inferno-pico/Pico/arm/lib/libkern.a(strecpy.o)
 .debug_abbrev  0x0000fb24       0xba /home/pi/github/inferno-pico/Pico/arm/lib/libkern.a(strlen.o)
 .debug_abbrev  0x0000fbde       0x9f /home/pi/github/inferno-pico/Pico/arm/lib/libkern.a(strncmp.o)
 .debug_abbrev  0x0000fc7d       0xbd /home/pi/github/inferno-pico/Pico/arm/lib/libkern.a(strncpy.o)
 .debug_abbrev  0x0000fd3a       0xd6 /home/pi/github/inferno-pico/Pico/arm/lib/libkern.a(strrchr.o)
 .debug_abbrev  0x0000fe10       0xd6 /home/pi/github/inferno-pico/Pico/arm/lib/libkern.a(strstr.o)
 .debug_abbrev  0x0000fee6       0xcc /home/pi/github/inferno-pico/Pico/arm/lib/libkern.a(strtol.o)
 .debug_abbrev  0x0000ffb2       0xd1 /home/pi/github/inferno-pico/Pico/arm/lib/libkern.a(strtoll.o)
 .debug_abbrev  0x00010083       0xca /home/pi/github/inferno-pico/Pico/arm/lib/libkern.a(strtoul.o)
 .debug_abbrev  0x0001014d      0x12f /home/pi/github/inferno-pico/Pico/arm/lib/libkern.a(tokenize.o)
 .debug_abbrev  0x0001027c      0x111 /home/pi/github/inferno-pico/Pico/arm/lib/libkern.a(utflen.o)
 .debug_abbrev  0x0001038d      0x11e /home/pi/github/inferno-pico/Pico/arm/lib/libkern.a(utfnlen.o)
 .debug_abbrev  0x000104ab      0x11c /home/pi/github/inferno-pico/Pico/arm/lib/libkern.a(utfrune.o)
 .debug_abbrev  0x000105c7      0x126 /home/pi/github/inferno-pico/Pico/arm/lib/libkern.a(vseprint.o)
 .debug_abbrev  0x000106ed      0x12d /home/pi/github/inferno-pico/Pico/arm/lib/libkern.a(frexp-arm.o)
 .debug_abbrev  0x0001081a      0x145 /home/pi/github/inferno-pico/Pico/arm/lib/libkern.a(nan-arm.o)
 .debug_abbrev  0x0001095f       0xb5 /home/pi/github/inferno-pico/Pico/arm/lib/libkern.a(memccpy.o)
 .debug_abbrev  0x00010a14      0x35d /home/pi/github/inferno-pico/Pico/arm/lib/libpico.a(clocks.o)
 .debug_abbrev  0x00010d71       0x12 /home/pi/github/inferno-pico/Pico/arm/lib/libpico.a(crt0.o)
 .debug_abbrev  0x00010d83       0x14 /home/pi/github/inferno-pico/Pico/arm/lib/libpico.a(double_none.o)
 .debug_abbrev  0x00010d97       0x14 /home/pi/github/inferno-pico/Pico/arm/lib/libpico.a(float_none.o)
 .debug_abbrev  0x00010dab      0x287 /home/pi/github/inferno-pico/Pico/arm/lib/libpico.a(gpio.o)
 .debug_abbrev  0x00011032      0x418 /home/pi/github/inferno-pico/Pico/arm/lib/libpico.a(irq.o)
 .debug_abbrev  0x0001144a       0x14 /home/pi/github/inferno-pico/Pico/arm/lib/libpico.a(irq_handler_chain.o)
 .debug_abbrev  0x0001145e       0x12 /home/pi/github/inferno-pico/Pico/arm/lib/libpico.a(mem_ops_aeabi.o)
 .debug_abbrev  0x00011470       0x12 /home/pi/github/inferno-pico/Pico/arm/lib/libpico.a(pico_divider.o)
 .debug_abbrev  0x00011482      0x270 /home/pi/github/inferno-pico/Pico/arm/lib/libpico.a(pico_malloc.o)
 .debug_abbrev  0x000116f2       0xde /home/pi/github/inferno-pico/Pico/arm/lib/libpico.a(platform.o)
 .debug_abbrev  0x000117d0      0x1a0 /home/pi/github/inferno-pico/Pico/arm/lib/libpico.a(pll.o)
 .debug_abbrev  0x00011970      0x373 /home/pi/github/inferno-pico/Pico/arm/lib/libpico.a(runtime.o)
 .debug_abbrev  0x00011ce3      0x4c9 /home/pi/github/inferno-pico/Pico/arm/lib/libpico.a(stdio.o)
 .debug_abbrev  0x000121ac      0x36d /home/pi/github/inferno-pico/Pico/arm/lib/libpico.a(stdio_uart.o)
 .debug_abbrev  0x00012519      0x1e8 /home/pi/github/inferno-pico/Pico/arm/lib/libpico.a(sync.o)
 .debug_abbrev  0x00012701      0x5a5 /home/pi/github/inferno-pico/Pico/arm/lib/libpico.a(time.o)
 .debug_abbrev  0x00012ca6      0x320 /home/pi/github/inferno-pico/Pico/arm/lib/libpico.a(timer.o)
 .debug_abbrev  0x00012fc6      0x29c /home/pi/github/inferno-pico/Pico/arm/lib/libpico.a(uart.o)
 .debug_abbrev  0x00013262      0x143 /home/pi/github/inferno-pico/Pico/arm/lib/libpico.a(unique_id.o)
 .debug_abbrev  0x000133a5      0x17f /home/pi/github/inferno-pico/Pico/arm/lib/libpico.a(watchdog.o)
 .debug_abbrev  0x00013524       0xec /home/pi/github/inferno-pico/Pico/arm/lib/libpico.a(xosc.o)
 .debug_abbrev  0x00013610       0x14 /home/pi/github/inferno-pico/Pico/arm/lib/libpico.a(pico_int64_ops_aeabi.o)
 .debug_abbrev  0x00013624      0x11e /home/pi/github/inferno-pico/Pico/arm/lib/libpico.a(bootrom.o)
 .debug_abbrev  0x00013742      0x265 /home/pi/github/inferno-pico/Pico/arm/lib/libpico.a(claim.o)
 .debug_abbrev  0x000139a7      0x279 /home/pi/github/inferno-pico/Pico/arm/lib/libpico.a(flash.o)
 .debug_abbrev  0x00013c20      0x12d /home/pi/github/inferno-pico/Pico/arm/lib/libpico.a(lock_core.o)
 .debug_abbrev  0x00013d4d      0x325 /home/pi/github/inferno-pico/Pico/arm/lib/libpico.a(mutex.o)
 .debug_abbrev  0x00014072      0x3ac /home/pi/github/inferno-pico/Pico/arm/lib/libpico.a(pheap.o)
 .debug_abbrev  0x0001441e      0x427 /home/pi/github/inferno-pico/Pico/arm/lib/libpico.a(printf.o)
 .debug_abbrev  0x00014845       0x14 /usr/lib/gcc/arm-none-eabi/7.3.1/thumb/v6-m/libgcc.a(_dvmd_tls.o)
 .debug_abbrev  0x00014859      0x1e3 /usr/lib/gcc/arm-none-eabi/7.3.1/../../../arm-none-eabi/lib/thumb/v6-m/libg.a(lib_a-memmove.o)
 .debug_abbrev  0x00014a3c      0x1c7 /usr/lib/gcc/arm-none-eabi/7.3.1/../../../arm-none-eabi/lib/thumb/v6-m/libg.a(lib_a-strchr.o)

.debug_loc      0x00000000    0x4ab0e
 .debug_loc     0x00000000       0x9c main.o
 .debug_loc     0x0000009c      0x634 devroot.o
 .debug_loc     0x000006d0     0x18c2 devcons.o
 .debug_loc     0x00001f92      0xabf devenv.o
 .debug_loc     0x00002a51     0x1dce devmnt.o
 .debug_loc     0x0000481f      0xc77 devpipe.o
 .debug_loc     0x00005496     0x2c06 devprog.o
 .debug_loc     0x0000809c     0x106a devsrv.o
 .debug_loc     0x00009106      0x6fe devdup.o
 .debug_loc     0x00009804      0x4a5 archpico.o
 .debug_loc     0x00009ca9       0x31 alarm.o
 .debug_loc     0x00009cda     0x19f7 alloc.o
 .debug_loc     0x0000b6d1      0x256 allocb.o
 .debug_loc     0x0000b927     0x1d80 chan.o
 .debug_loc     0x0000d6a7      0x5c3 portclock.o
 .debug_loc     0x0000dc6a      0xe86 dev.o
 .debug_loc     0x0000eaf0      0x97c dial.o
 .debug_loc     0x0000f46c     0x1407 dis.o
 .debug_loc     0x00010873      0x733 exception.o
 .debug_loc     0x00010fa6     0x205a exportfs.o
 .debug_loc     0x00013000     0x1e39 inferno.o
 .debug_loc     0x00014e39      0x202 latin1.o
 .debug_loc     0x0001503b       0x81 mul64fract.o
 .debug_loc     0x000150bc       0x21 nocache.o
 .debug_loc     0x000150dd       0xa5 nodynld.o
 .debug_loc     0x00015182      0x38d parse.o
 .debug_loc     0x0001550f      0x6a4 pgrp.o
 .debug_loc     0x00015bb3       0x42 print.o
 .debug_loc     0x00015bf5      0xe3e proc.o
 .debug_loc     0x00016a33     0x1db0 qio.o
 .debug_loc     0x000187e3      0x223 qlock.o
 .debug_loc     0x00018a06      0x22e random.o
 .debug_loc     0x00018c34     0x22b0 sysfile.o
 .debug_loc     0x0001aee4      0x2a9 taslock.o
 .debug_loc     0x0001b18d      0x379 tod.o
 .debug_loc     0x0001b506      0x5f7 xalloc.o
 .debug_loc     0x0001bafd      0x3e6 dump.o
 .debug_loc     0x0001bee3      0x828 /home/pi/github/inferno-pico/Pico/arm/lib/libinterp.a(alt.o)
 .debug_loc     0x0001c70b     0x1fa0 /home/pi/github/inferno-pico/Pico/arm/lib/libinterp.a(comp-arm.o)
 .debug_loc     0x0001e6ab      0x23f /home/pi/github/inferno-pico/Pico/arm/lib/libinterp.a(conv.o)
 .debug_loc     0x0001e8ea      0x810 /home/pi/github/inferno-pico/Pico/arm/lib/libinterp.a(gc.o)
 .debug_loc     0x0001f0fa     0x11a4 /home/pi/github/inferno-pico/Pico/arm/lib/libinterp.a(heap.o)
 .debug_loc     0x0002029e      0x5c3 /home/pi/github/inferno-pico/Pico/arm/lib/libinterp.a(link.o)
 .debug_loc     0x00020861     0x14e3 /home/pi/github/inferno-pico/Pico/arm/lib/libinterp.a(load.o)
 .debug_loc     0x00021d44     0x2440 /home/pi/github/inferno-pico/Pico/arm/lib/libinterp.a(math.o)
 .debug_loc     0x00024184      0x3fa /home/pi/github/inferno-pico/Pico/arm/lib/libinterp.a(readmod.o)
 .debug_loc     0x0002457e     0x1399 /home/pi/github/inferno-pico/Pico/arm/lib/libinterp.a(runt.o)
 .debug_loc     0x00025917       0x42 /home/pi/github/inferno-pico/Pico/arm/lib/libinterp.a(sign.o)
 .debug_loc     0x00025959      0x2d7 /home/pi/github/inferno-pico/Pico/arm/lib/libinterp.a(stack.o)
 .debug_loc     0x00025c30     0x2ce3 /home/pi/github/inferno-pico/Pico/arm/lib/libinterp.a(xec.o)
 .debug_loc     0x00028913      0xae7 /home/pi/github/inferno-pico/Pico/arm/lib/libinterp.a(das-arm.o)
 .debug_loc     0x000293fa     0x13cc /home/pi/github/inferno-pico/Pico/arm/lib/libinterp.a(string.o)
 .debug_loc     0x0002a7c6       0x21 /home/pi/github/inferno-pico/Pico/arm/lib/libinterp.a(dlm-Pico.o)
 .debug_loc     0x0002a7e7      0x3aa /home/pi/github/inferno-pico/Pico/arm/lib/libmath.a(blas.o)
 .debug_loc     0x0002ab91     0x4b65 /home/pi/github/inferno-pico/Pico/arm/lib/libmath.a(dtoa.o)
 .debug_loc     0x0002f6f6       0xf0 /home/pi/github/inferno-pico/Pico/arm/lib/libmath.a(fdim.o)
 .debug_loc     0x0002f7e6      0x2ed /home/pi/github/inferno-pico/Pico/arm/lib/libmath.a(FPcontrol-Pico.o)
 .debug_loc     0x0002fad3      0xb29 /home/pi/github/inferno-pico/Pico/arm/lib/libmath.a(gemm.o)
 .debug_loc     0x000305fc      0x66c /home/pi/github/inferno-pico/Pico/arm/lib/libmath.a(gfltconv.o)
 .debug_loc     0x00030c68       0x21 /home/pi/github/inferno-pico/Pico/arm/lib/libmath.a(pow10.o)
 .debug_loc     0x00030c89      0x42a /home/pi/github/inferno-pico/Pico/arm/lib/libmath.a(e_acos.o)
 .debug_loc     0x000310b3      0x17c /home/pi/github/inferno-pico/Pico/arm/lib/libmath.a(e_acosh.o)
 .debug_loc     0x0003122f      0x2be /home/pi/github/inferno-pico/Pico/arm/lib/libmath.a(e_asin.o)
 .debug_loc     0x000314ed      0x689 /home/pi/github/inferno-pico/Pico/arm/lib/libmath.a(e_atan2.o)
 .debug_loc     0x00031b76      0x168 /home/pi/github/inferno-pico/Pico/arm/lib/libmath.a(e_atanh.o)
 .debug_loc     0x00031cde      0x191 /home/pi/github/inferno-pico/Pico/arm/lib/libmath.a(e_cosh.o)
 .debug_loc     0x00031e6f      0x2a9 /home/pi/github/inferno-pico/Pico/arm/lib/libmath.a(e_exp.o)
 .debug_loc     0x00032118      0x630 /home/pi/github/inferno-pico/Pico/arm/lib/libmath.a(e_fmod.o)
 .debug_loc     0x00032748      0x2ec /home/pi/github/inferno-pico/Pico/arm/lib/libmath.a(e_hypot.o)
 .debug_loc     0x00032a34      0x93c /home/pi/github/inferno-pico/Pico/arm/lib/libmath.a(e_j0.o)
 .debug_loc     0x00033370      0x93e /home/pi/github/inferno-pico/Pico/arm/lib/libmath.a(e_j1.o)
 .debug_loc     0x00033cae      0xecf /home/pi/github/inferno-pico/Pico/arm/lib/libmath.a(e_jn.o)
 .debug_loc     0x00034b7d      0xd17 /home/pi/github/inferno-pico/Pico/arm/lib/libmath.a(e_lgamma_r.o)
 .debug_loc     0x00035894      0x47f /home/pi/github/inferno-pico/Pico/arm/lib/libmath.a(e_log.o)
 .debug_loc     0x00035d13      0x163 /home/pi/github/inferno-pico/Pico/arm/lib/libmath.a(e_log10.o)
 .debug_loc     0x00035e76      0xbfa /home/pi/github/inferno-pico/Pico/arm/lib/libmath.a(e_pow.o)
 .debug_loc     0x00036a70      0x210 /home/pi/github/inferno-pico/Pico/arm/lib/libmath.a(e_remainder.o)
 .debug_loc     0x00036c80      0x221 /home/pi/github/inferno-pico/Pico/arm/lib/libmath.a(e_sinh.o)
 .debug_loc     0x00036ea1      0x332 /home/pi/github/inferno-pico/Pico/arm/lib/libmath.a(e_sqrt.o)
 .debug_loc     0x000371d3      0x17a /home/pi/github/inferno-pico/Pico/arm/lib/libmath.a(k_cos.o)
 .debug_loc     0x0003734d      0x119 /home/pi/github/inferno-pico/Pico/arm/lib/libmath.a(k_sin.o)
 .debug_loc     0x00037466      0x78c /home/pi/github/inferno-pico/Pico/arm/lib/libmath.a(s_erf.o)
 .debug_loc     0x00037bf2       0x28 /home/pi/github/inferno-pico/Pico/arm/lib/libmath.a(s_fabs.o)
 .debug_loc     0x00037c1a       0x28 /home/pi/github/inferno-pico/Pico/arm/lib/libmath.a(s_finite.o)
 .debug_loc     0x00037c42       0xbd /home/pi/github/inferno-pico/Pico/arm/lib/libmath.a(s_ilogb.o)
 .debug_loc     0x00037cff      0x3cb /home/pi/github/inferno-pico/Pico/arm/lib/libmath.a(s_nextafter.o)
 .debug_loc     0x000380ca      0x2fb /home/pi/github/inferno-pico/Pico/arm/lib/libmath.a(s_rint.o)
 .debug_loc     0x000383c5      0x1d5 /home/pi/github/inferno-pico/Pico/arm/lib/libmath.a(s_scalbn.o)
 .debug_loc     0x0003859a      0x317 /home/pi/github/inferno-pico/Pico/arm/lib/libmath.a(g_fmt.o)
 .debug_loc     0x000388b1       0x74 /home/pi/github/inferno-pico/Pico/arm/lib/libkern.a(abs.o)
 .debug_loc     0x00038925       0xe2 /home/pi/github/inferno-pico/Pico/arm/lib/libkern.a(atol.o)
 .debug_loc     0x00038a07      0x196 /home/pi/github/inferno-pico/Pico/arm/lib/libkern.a(cleanname.o)
 .debug_loc     0x00038b9d      0x2e4 /home/pi/github/inferno-pico/Pico/arm/lib/libkern.a(convD2M.o)
 .debug_loc     0x00038e81      0x39a /home/pi/github/inferno-pico/Pico/arm/lib/libkern.a(convM2D.o)
 .debug_loc     0x0003921b      0x857 /home/pi/github/inferno-pico/Pico/arm/lib/libkern.a(convM2S.o)
 .debug_loc     0x00039a72      0x793 /home/pi/github/inferno-pico/Pico/arm/lib/libkern.a(convS2M.o)
 .debug_loc     0x0003a205     0x18f6 /home/pi/github/inferno-pico/Pico/arm/lib/libkern.a(dofmt.o)
 .debug_loc     0x0003bafb      0xe2a /home/pi/github/inferno-pico/Pico/arm/lib/libkern.a(fcallfmt.o)
 .debug_loc     0x0003c925      0x358 /home/pi/github/inferno-pico/Pico/arm/lib/libkern.a(fmt.o)
 .debug_loc     0x0003cc7d      0xb46 /home/pi/github/inferno-pico/Pico/arm/lib/libkern.a(fmtquote.o)
 .debug_loc     0x0003d7c3       0x86 /home/pi/github/inferno-pico/Pico/arm/lib/libkern.a(memchr.o)
 .debug_loc     0x0003d849      0x145 /home/pi/github/inferno-pico/Pico/arm/lib/libkern.a(memcmp.o)
 .debug_loc     0x0003d98e      0x372 /home/pi/github/inferno-pico/Pico/arm/lib/libkern.a(rune.o)
 .debug_loc     0x0003dd00       0x56 /home/pi/github/inferno-pico/Pico/arm/lib/libkern.a(seprint.o)
 .debug_loc     0x0003dd56       0x52 /home/pi/github/inferno-pico/Pico/arm/lib/libkern.a(strcmp.o)
 .debug_loc     0x0003dda8       0x65 /home/pi/github/inferno-pico/Pico/arm/lib/libkern.a(strcpy.o)
 .debug_loc     0x0003de0d       0x3f /home/pi/github/inferno-pico/Pico/arm/lib/libkern.a(strdup.o)
 .debug_loc     0x0003de4c       0x9d /home/pi/github/inferno-pico/Pico/arm/lib/libkern.a(strecpy.o)
 .debug_loc     0x0003dee9       0x2c /home/pi/github/inferno-pico/Pico/arm/lib/libkern.a(strlen.o)
 .debug_loc     0x0003df15      0x112 /home/pi/github/inferno-pico/Pico/arm/lib/libkern.a(strncmp.o)
 .debug_loc     0x0003e027       0x7e /home/pi/github/inferno-pico/Pico/arm/lib/libkern.a(strncpy.o)
 .debug_loc     0x0003e0a5       0x97 /home/pi/github/inferno-pico/Pico/arm/lib/libkern.a(strrchr.o)
 .debug_loc     0x0003e13c       0xec /home/pi/github/inferno-pico/Pico/arm/lib/libkern.a(strstr.o)
 .debug_loc     0x0003e228      0x33a /home/pi/github/inferno-pico/Pico/arm/lib/libkern.a(strtol.o)
 .debug_loc     0x0003e562      0x2c4 /home/pi/github/inferno-pico/Pico/arm/lib/libkern.a(strtoll.o)
 .debug_loc     0x0003e826      0x37d /home/pi/github/inferno-pico/Pico/arm/lib/libkern.a(strtoul.o)
 .debug_loc     0x0003eba3      0x37b /home/pi/github/inferno-pico/Pico/arm/lib/libkern.a(tokenize.o)
 .debug_loc     0x0003ef1e       0x66 /home/pi/github/inferno-pico/Pico/arm/lib/libkern.a(utflen.o)
 .debug_loc     0x0003ef84       0xac /home/pi/github/inferno-pico/Pico/arm/lib/libkern.a(utfnlen.o)
 .debug_loc     0x0003f030       0xc8 /home/pi/github/inferno-pico/Pico/arm/lib/libkern.a(utfrune.o)
 .debug_loc     0x0003f0f8       0xe7 /home/pi/github/inferno-pico/Pico/arm/lib/libkern.a(vseprint.o)
 .debug_loc     0x0003f1df      0x21e /home/pi/github/inferno-pico/Pico/arm/lib/libkern.a(frexp-arm.o)
 .debug_loc     0x0003f3fd      0x114 /home/pi/github/inferno-pico/Pico/arm/lib/libkern.a(nan-arm.o)
 .debug_loc     0x0003f511       0xd0 /home/pi/github/inferno-pico/Pico/arm/lib/libkern.a(memccpy.o)
 .debug_loc     0x0003f5e1      0x66e /home/pi/github/inferno-pico/Pico/arm/lib/libpico.a(clocks.o)
 .debug_loc     0x0003fc4f      0xd1a /home/pi/github/inferno-pico/Pico/arm/lib/libpico.a(gpio.o)
 .debug_loc     0x00040969      0xc78 /home/pi/github/inferno-pico/Pico/arm/lib/libpico.a(irq.o)
 .debug_loc     0x000415e1      0x102 /home/pi/github/inferno-pico/Pico/arm/lib/libpico.a(pico_malloc.o)
 .debug_loc     0x000416e3       0xcf /home/pi/github/inferno-pico/Pico/arm/lib/libpico.a(platform.o)
 .debug_loc     0x000417b2      0x28f /home/pi/github/inferno-pico/Pico/arm/lib/libpico.a(pll.o)
 .debug_loc     0x00041a41      0x2e3 /home/pi/github/inferno-pico/Pico/arm/lib/libpico.a(runtime.o)
 .debug_loc     0x00041d24      0xa2c /home/pi/github/inferno-pico/Pico/arm/lib/libpico.a(stdio.o)
 .debug_loc     0x00042750      0x444 /home/pi/github/inferno-pico/Pico/arm/lib/libpico.a(stdio_uart.o)
 .debug_loc     0x00042b94      0x196 /home/pi/github/inferno-pico/Pico/arm/lib/libpico.a(sync.o)
 .debug_loc     0x00042d2a     0x235a /home/pi/github/inferno-pico/Pico/arm/lib/libpico.a(time.o)
 .debug_loc     0x00045084      0x59d /home/pi/github/inferno-pico/Pico/arm/lib/libpico.a(timer.o)
 .debug_loc     0x00045621      0x468 /home/pi/github/inferno-pico/Pico/arm/lib/libpico.a(uart.o)
 .debug_loc     0x00045a89       0xe1 /home/pi/github/inferno-pico/Pico/arm/lib/libpico.a(unique_id.o)
 .debug_loc     0x00045b6a      0x252 /home/pi/github/inferno-pico/Pico/arm/lib/libpico.a(watchdog.o)
 .debug_loc     0x00045dbc       0x35 /home/pi/github/inferno-pico/Pico/arm/lib/libpico.a(xosc.o)
 .debug_loc     0x00045df1      0x171 /home/pi/github/inferno-pico/Pico/arm/lib/libpico.a(bootrom.o)
 .debug_loc     0x00045f62      0x371 /home/pi/github/inferno-pico/Pico/arm/lib/libpico.a(claim.o)
 .debug_loc     0x000462d3      0x7bf /home/pi/github/inferno-pico/Pico/arm/lib/libpico.a(flash.o)
 .debug_loc     0x00046a92       0x56 /home/pi/github/inferno-pico/Pico/arm/lib/libpico.a(lock_core.o)
 .debug_loc     0x00046ae8     0x100d /home/pi/github/inferno-pico/Pico/arm/lib/libpico.a(mutex.o)
 .debug_loc     0x00047af5      0xfd7 /home/pi/github/inferno-pico/Pico/arm/lib/libpico.a(pheap.o)
 .debug_loc     0x00048acc     0x1b4a /home/pi/github/inferno-pico/Pico/arm/lib/libpico.a(printf.o)
 .debug_loc     0x0004a616      0x397 /usr/lib/gcc/arm-none-eabi/7.3.1/../../../arm-none-eabi/lib/thumb/v6-m/libg.a(lib_a-memmove.o)
 .debug_loc     0x0004a9ad      0x161 /usr/lib/gcc/arm-none-eabi/7.3.1/../../../arm-none-eabi/lib/thumb/v6-m/libg.a(lib_a-strchr.o)

.debug_aranges  0x00000000     0x2f08
 .debug_aranges
                0x00000000       0x40 main.o
 .debug_aranges
                0x00000040       0x20 armv6.o
 .debug_aranges
                0x00000060       0x58 devroot.o
 .debug_aranges
                0x000000b8      0x1a8 devcons.o
 .debug_aranges
                0x00000260       0x88 devenv.o
 .debug_aranges
                0x000002e8      0x130 devmnt.o
 .debug_aranges
                0x00000418       0x80 devpipe.o
 .debug_aranges
                0x00000498      0x130 devprog.o
 .debug_aranges
                0x000005c8       0xe0 devsrv.o
 .debug_aranges
                0x000006a8       0x58 devdup.o
 .debug_aranges
                0x00000700       0xf8 archpico.o
 .debug_aranges
                0x000007f8       0x20 alarm.o
 .debug_aranges
                0x00000818      0x138 alloc.o
 .debug_aranges
                0x00000950       0x48 allocb.o
 .debug_aranges
                0x00000998      0x150 chan.o
 .debug_aranges
                0x00000ae8       0x68 portclock.o
 .debug_aranges
                0x00000b50       0xd0 dev.o
 .debug_aranges
                0x00000c20       0x58 dial.o
 .debug_aranges
                0x00000c78      0x160 dis.o
 .debug_aranges
                0x00000dd8       0x48 exception.o
 .debug_aranges
                0x00000e20      0x148 exportfs.o
 .debug_aranges
                0x00000f68      0x198 inferno.o
 .debug_aranges
                0x00001100       0x28 latin1.o
 .debug_aranges
                0x00001128       0x20 mul64fract.o
 .debug_aranges
                0x00001148       0x40 nocache.o
 .debug_aranges
                0x00001188       0x48 nodynld.o
 .debug_aranges
                0x000011d0       0x38 parse.o
 .debug_aranges
                0x00001208       0x78 pgrp.o
 .debug_aranges
                0x00001280       0x38 print.o
 .debug_aranges
                0x000012b8      0x148 proc.o
 .debug_aranges
                0x00001400      0x1a8 qio.o
 .debug_aranges
                0x000015a8       0x58 qlock.o
 .debug_aranges
                0x00001600       0x48 random.o
 .debug_aranges
                0x00001648      0x170 sysfile.o
 .debug_aranges
                0x000017b8       0x48 taslock.o
 .debug_aranges
                0x00001800       0x70 tod.o
 .debug_aranges
                0x00001870       0x60 xalloc.o
 .debug_aranges
                0x000018d0       0x58 dump.o
 .debug_aranges
                0x00001928       0x18 pico.root.o
 .debug_aranges
                0x00001940       0x28 pico.o
 .debug_aranges
                0x00001968       0x20 /home/pi/github/inferno-pico/Pico/arm/lib/libinterp.a(alt.o)
 .debug_aranges
                0x00001988       0x20 /home/pi/github/inferno-pico/Pico/arm/lib/libinterp.a(comp-arm.o)
 .debug_aranges
                0x000019a8       0x20 /home/pi/github/inferno-pico/Pico/arm/lib/libinterp.a(conv.o)
 .debug_aranges
                0x000019c8       0x20 /home/pi/github/inferno-pico/Pico/arm/lib/libinterp.a(dec.o)
 .debug_aranges
                0x000019e8       0x20 /home/pi/github/inferno-pico/Pico/arm/lib/libinterp.a(gc.o)
 .debug_aranges
                0x00001a08       0x20 /home/pi/github/inferno-pico/Pico/arm/lib/libinterp.a(heap.o)
 .debug_aranges
                0x00001a28       0x20 /home/pi/github/inferno-pico/Pico/arm/lib/libinterp.a(link.o)
 .debug_aranges
                0x00001a48       0x20 /home/pi/github/inferno-pico/Pico/arm/lib/libinterp.a(load.o)
 .debug_aranges
                0x00001a68       0x20 /home/pi/github/inferno-pico/Pico/arm/lib/libinterp.a(math.o)
 .debug_aranges
                0x00001a88       0x18 /home/pi/github/inferno-pico/Pico/arm/lib/libinterp.a(raise.o)
 .debug_aranges
                0x00001aa0       0x20 /home/pi/github/inferno-pico/Pico/arm/lib/libinterp.a(readmod.o)
 .debug_aranges
                0x00001ac0       0x20 /home/pi/github/inferno-pico/Pico/arm/lib/libinterp.a(runt.o)
 .debug_aranges
                0x00001ae0       0x20 /home/pi/github/inferno-pico/Pico/arm/lib/libinterp.a(sign.o)
 .debug_aranges
                0x00001b00       0x20 /home/pi/github/inferno-pico/Pico/arm/lib/libinterp.a(stack.o)
 .debug_aranges
                0x00001b20       0x20 /home/pi/github/inferno-pico/Pico/arm/lib/libinterp.a(xec.o)
 .debug_aranges
                0x00001b40       0x20 /home/pi/github/inferno-pico/Pico/arm/lib/libinterp.a(das-arm.o)
 .debug_aranges
                0x00001b60       0x20 /home/pi/github/inferno-pico/Pico/arm/lib/libinterp.a(string.o)
 .debug_aranges
                0x00001b80       0x20 /home/pi/github/inferno-pico/Pico/arm/lib/libinterp.a(dlm-Pico.o)
 .debug_aranges
                0x00001ba0       0x20 /home/pi/github/inferno-pico/Pico/arm/lib/libmath.a(blas.o)
 .debug_aranges
                0x00001bc0       0x20 /home/pi/github/inferno-pico/Pico/arm/lib/libmath.a(dtoa.o)
 .debug_aranges
                0x00001be0       0x20 /home/pi/github/inferno-pico/Pico/arm/lib/libmath.a(fdim.o)
 .debug_aranges
                0x00001c00       0x20 /home/pi/github/inferno-pico/Pico/arm/lib/libmath.a(FPcontrol-Pico.o)
 .debug_aranges
                0x00001c20       0x20 /home/pi/github/inferno-pico/Pico/arm/lib/libmath.a(gemm.o)
 .debug_aranges
                0x00001c40       0x20 /home/pi/github/inferno-pico/Pico/arm/lib/libmath.a(gfltconv.o)
 .debug_aranges
                0x00001c60       0x20 /home/pi/github/inferno-pico/Pico/arm/lib/libmath.a(pow10.o)
 .debug_aranges
                0x00001c80       0x20 /home/pi/github/inferno-pico/Pico/arm/lib/libmath.a(e_acos.o)
 .debug_aranges
                0x00001ca0       0x20 /home/pi/github/inferno-pico/Pico/arm/lib/libmath.a(e_acosh.o)
 .debug_aranges
                0x00001cc0       0x20 /home/pi/github/inferno-pico/Pico/arm/lib/libmath.a(e_asin.o)
 .debug_aranges
                0x00001ce0       0x20 /home/pi/github/inferno-pico/Pico/arm/lib/libmath.a(e_atan2.o)
 .debug_aranges
                0x00001d00       0x20 /home/pi/github/inferno-pico/Pico/arm/lib/libmath.a(e_atanh.o)
 .debug_aranges
                0x00001d20       0x20 /home/pi/github/inferno-pico/Pico/arm/lib/libmath.a(e_cosh.o)
 .debug_aranges
                0x00001d40       0x20 /home/pi/github/inferno-pico/Pico/arm/lib/libmath.a(e_exp.o)
 .debug_aranges
                0x00001d60       0x20 /home/pi/github/inferno-pico/Pico/arm/lib/libmath.a(e_fmod.o)
 .debug_aranges
                0x00001d80       0x20 /home/pi/github/inferno-pico/Pico/arm/lib/libmath.a(e_hypot.o)
 .debug_aranges
                0x00001da0       0x20 /home/pi/github/inferno-pico/Pico/arm/lib/libmath.a(e_j0.o)
 .debug_aranges
                0x00001dc0       0x20 /home/pi/github/inferno-pico/Pico/arm/lib/libmath.a(e_j1.o)
 .debug_aranges
                0x00001de0       0x20 /home/pi/github/inferno-pico/Pico/arm/lib/libmath.a(e_jn.o)
 .debug_aranges
                0x00001e00       0x20 /home/pi/github/inferno-pico/Pico/arm/lib/libmath.a(e_lgamma_r.o)
 .debug_aranges
                0x00001e20       0x20 /home/pi/github/inferno-pico/Pico/arm/lib/libmath.a(e_log.o)
 .debug_aranges
                0x00001e40       0x20 /home/pi/github/inferno-pico/Pico/arm/lib/libmath.a(e_log10.o)
 .debug_aranges
                0x00001e60       0x20 /home/pi/github/inferno-pico/Pico/arm/lib/libmath.a(e_pow.o)
 .debug_aranges
                0x00001e80       0x20 /home/pi/github/inferno-pico/Pico/arm/lib/libmath.a(e_remainder.o)
 .debug_aranges
                0x00001ea0       0x20 /home/pi/github/inferno-pico/Pico/arm/lib/libmath.a(e_sinh.o)
 .debug_aranges
                0x00001ec0       0x20 /home/pi/github/inferno-pico/Pico/arm/lib/libmath.a(e_sqrt.o)
 .debug_aranges
                0x00001ee0       0x20 /home/pi/github/inferno-pico/Pico/arm/lib/libmath.a(k_cos.o)
 .debug_aranges
                0x00001f00       0x20 /home/pi/github/inferno-pico/Pico/arm/lib/libmath.a(k_sin.o)
 .debug_aranges
                0x00001f20       0x20 /home/pi/github/inferno-pico/Pico/arm/lib/libmath.a(s_erf.o)
 .debug_aranges
                0x00001f40       0x20 /home/pi/github/inferno-pico/Pico/arm/lib/libmath.a(s_fabs.o)
 .debug_aranges
                0x00001f60       0x20 /home/pi/github/inferno-pico/Pico/arm/lib/libmath.a(s_finite.o)
 .debug_aranges
                0x00001f80       0x20 /home/pi/github/inferno-pico/Pico/arm/lib/libmath.a(s_ilogb.o)
 .debug_aranges
                0x00001fa0       0x20 /home/pi/github/inferno-pico/Pico/arm/lib/libmath.a(s_nextafter.o)
 .debug_aranges
                0x00001fc0       0x20 /home/pi/github/inferno-pico/Pico/arm/lib/libmath.a(s_rint.o)
 .debug_aranges
                0x00001fe0       0x20 /home/pi/github/inferno-pico/Pico/arm/lib/libmath.a(s_scalbn.o)
 .debug_aranges
                0x00002000       0x20 /home/pi/github/inferno-pico/Pico/arm/lib/libmath.a(g_fmt.o)
 .debug_aranges
                0x00002020       0x20 /home/pi/github/inferno-pico/Pico/arm/lib/libkern.a(abort.o)
 .debug_aranges
                0x00002040       0x20 /home/pi/github/inferno-pico/Pico/arm/lib/libkern.a(abs.o)
 .debug_aranges
                0x00002060       0x20 /home/pi/github/inferno-pico/Pico/arm/lib/libkern.a(atol.o)
 .debug_aranges
                0x00002080       0x20 /home/pi/github/inferno-pico/Pico/arm/lib/libkern.a(cleanname.o)
 .debug_aranges
                0x000020a0       0x20 /home/pi/github/inferno-pico/Pico/arm/lib/libkern.a(convD2M.o)
 .debug_aranges
                0x000020c0       0x20 /home/pi/github/inferno-pico/Pico/arm/lib/libkern.a(convM2D.o)
 .debug_aranges
                0x000020e0       0x20 /home/pi/github/inferno-pico/Pico/arm/lib/libkern.a(convM2S.o)
 .debug_aranges
                0x00002100       0x20 /home/pi/github/inferno-pico/Pico/arm/lib/libkern.a(convS2M.o)
 .debug_aranges
                0x00002120       0x20 /home/pi/github/inferno-pico/Pico/arm/lib/libkern.a(dofmt.o)
 .debug_aranges
                0x00002140       0x20 /home/pi/github/inferno-pico/Pico/arm/lib/libkern.a(fcallfmt.o)
 .debug_aranges
                0x00002160       0x20 /home/pi/github/inferno-pico/Pico/arm/lib/libkern.a(fmt.o)
 .debug_aranges
                0x00002180       0x20 /home/pi/github/inferno-pico/Pico/arm/lib/libkern.a(fmtquote.o)
 .debug_aranges
                0x000021a0       0x20 /home/pi/github/inferno-pico/Pico/arm/lib/libkern.a(memchr.o)
 .debug_aranges
                0x000021c0       0x20 /home/pi/github/inferno-pico/Pico/arm/lib/libkern.a(memcmp.o)
 .debug_aranges
                0x000021e0       0x20 /home/pi/github/inferno-pico/Pico/arm/lib/libkern.a(rune.o)
 .debug_aranges
                0x00002200       0x20 /home/pi/github/inferno-pico/Pico/arm/lib/libkern.a(seprint.o)
 .debug_aranges
                0x00002220       0x20 /home/pi/github/inferno-pico/Pico/arm/lib/libkern.a(strcmp.o)
 .debug_aranges
                0x00002240       0x20 /home/pi/github/inferno-pico/Pico/arm/lib/libkern.a(strcpy.o)
 .debug_aranges
                0x00002260       0x20 /home/pi/github/inferno-pico/Pico/arm/lib/libkern.a(strdup.o)
 .debug_aranges
                0x00002280       0x20 /home/pi/github/inferno-pico/Pico/arm/lib/libkern.a(strecpy.o)
 .debug_aranges
                0x000022a0       0x20 /home/pi/github/inferno-pico/Pico/arm/lib/libkern.a(strlen.o)
 .debug_aranges
                0x000022c0       0x20 /home/pi/github/inferno-pico/Pico/arm/lib/libkern.a(strncmp.o)
 .debug_aranges
                0x000022e0       0x20 /home/pi/github/inferno-pico/Pico/arm/lib/libkern.a(strncpy.o)
 .debug_aranges
                0x00002300       0x20 /home/pi/github/inferno-pico/Pico/arm/lib/libkern.a(strrchr.o)
 .debug_aranges
                0x00002320       0x20 /home/pi/github/inferno-pico/Pico/arm/lib/libkern.a(strstr.o)
 .debug_aranges
                0x00002340       0x20 /home/pi/github/inferno-pico/Pico/arm/lib/libkern.a(strtol.o)
 .debug_aranges
                0x00002360       0x20 /home/pi/github/inferno-pico/Pico/arm/lib/libkern.a(strtoll.o)
 .debug_aranges
                0x00002380       0x20 /home/pi/github/inferno-pico/Pico/arm/lib/libkern.a(strtoul.o)
 .debug_aranges
                0x000023a0       0x20 /home/pi/github/inferno-pico/Pico/arm/lib/libkern.a(tokenize.o)
 .debug_aranges
                0x000023c0       0x20 /home/pi/github/inferno-pico/Pico/arm/lib/libkern.a(utflen.o)
 .debug_aranges
                0x000023e0       0x20 /home/pi/github/inferno-pico/Pico/arm/lib/libkern.a(utfnlen.o)
 .debug_aranges
                0x00002400       0x20 /home/pi/github/inferno-pico/Pico/arm/lib/libkern.a(utfrune.o)
 .debug_aranges
                0x00002420       0x20 /home/pi/github/inferno-pico/Pico/arm/lib/libkern.a(vseprint.o)
 .debug_aranges
                0x00002440       0x20 /home/pi/github/inferno-pico/Pico/arm/lib/libkern.a(frexp-arm.o)
 .debug_aranges
                0x00002460       0x20 /home/pi/github/inferno-pico/Pico/arm/lib/libkern.a(nan-arm.o)
 .debug_aranges
                0x00002480       0x20 /home/pi/github/inferno-pico/Pico/arm/lib/libkern.a(memccpy.o)
 .debug_aranges
                0x000024a0       0x70 /home/pi/github/inferno-pico/Pico/arm/lib/libpico.a(clocks.o)
 .debug_aranges
                0x00002510       0x28 /home/pi/github/inferno-pico/Pico/arm/lib/libpico.a(crt0.o)
 .debug_aranges
                0x00002538       0x20 /home/pi/github/inferno-pico/Pico/arm/lib/libpico.a(double_none.o)
 .debug_aranges
                0x00002558       0x20 /home/pi/github/inferno-pico/Pico/arm/lib/libpico.a(float_none.o)
 .debug_aranges
                0x00002578       0xd8 /home/pi/github/inferno-pico/Pico/arm/lib/libpico.a(gpio.o)
 .debug_aranges
                0x00002650       0x98 /home/pi/github/inferno-pico/Pico/arm/lib/libpico.a(irq.o)
 .debug_aranges
                0x000026e8       0x20 /home/pi/github/inferno-pico/Pico/arm/lib/libpico.a(irq_handler_chain.o)
 .debug_aranges
                0x00002708       0x38 /home/pi/github/inferno-pico/Pico/arm/lib/libpico.a(mem_ops_aeabi.o)
 .debug_aranges
                0x00002740       0x40 /home/pi/github/inferno-pico/Pico/arm/lib/libpico.a(pico_divider.o)
 .debug_aranges
                0x00002780       0x30 /home/pi/github/inferno-pico/Pico/arm/lib/libpico.a(pico_malloc.o)
 .debug_aranges
                0x000027b0       0x28 /home/pi/github/inferno-pico/Pico/arm/lib/libpico.a(platform.o)
 .debug_aranges
                0x000027d8       0x28 /home/pi/github/inferno-pico/Pico/arm/lib/libpico.a(pll.o)
 .debug_aranges
                0x00002800       0x60 /home/pi/github/inferno-pico/Pico/arm/lib/libpico.a(runtime.o)
 .debug_aranges
                0x00002860       0xd0 /home/pi/github/inferno-pico/Pico/arm/lib/libpico.a(stdio.o)
 .debug_aranges
                0x00002930       0x48 /home/pi/github/inferno-pico/Pico/arm/lib/libpico.a(stdio_uart.o)
 .debug_aranges
                0x00002978       0x58 /home/pi/github/inferno-pico/Pico/arm/lib/libpico.a(sync.o)
 .debug_aranges
                0x000029d0       0xd0 /home/pi/github/inferno-pico/Pico/arm/lib/libpico.a(time.o)
 .debug_aranges
                0x00002aa0       0x78 /home/pi/github/inferno-pico/Pico/arm/lib/libpico.a(timer.o)
 .debug_aranges
                0x00002b18       0x40 /home/pi/github/inferno-pico/Pico/arm/lib/libpico.a(uart.o)
 .debug_aranges
                0x00002b58       0x30 /home/pi/github/inferno-pico/Pico/arm/lib/libpico.a(unique_id.o)
 .debug_aranges
                0x00002b88       0x58 /home/pi/github/inferno-pico/Pico/arm/lib/libpico.a(watchdog.o)
 .debug_aranges
                0x00002be0       0x30 /home/pi/github/inferno-pico/Pico/arm/lib/libpico.a(xosc.o)
 .debug_aranges
                0x00002c10       0x20 /home/pi/github/inferno-pico/Pico/arm/lib/libpico.a(pico_int64_ops_aeabi.o)
 .debug_aranges
                0x00002c30       0x30 /home/pi/github/inferno-pico/Pico/arm/lib/libpico.a(bootrom.o)
 .debug_aranges
                0x00002c60       0x48 /home/pi/github/inferno-pico/Pico/arm/lib/libpico.a(claim.o)
 .debug_aranges
                0x00002ca8       0x50 /home/pi/github/inferno-pico/Pico/arm/lib/libpico.a(flash.o)
 .debug_aranges
                0x00002cf8       0x20 /home/pi/github/inferno-pico/Pico/arm/lib/libpico.a(lock_core.o)
 .debug_aranges
                0x00002d18       0x88 /home/pi/github/inferno-pico/Pico/arm/lib/libpico.a(mutex.o)
 .debug_aranges
                0x00002da0       0x78 /home/pi/github/inferno-pico/Pico/arm/lib/libpico.a(pheap.o)
 .debug_aranges
                0x00002e18       0x90 /home/pi/github/inferno-pico/Pico/arm/lib/libpico.a(printf.o)
 .debug_aranges
                0x00002ea8       0x20 /usr/lib/gcc/arm-none-eabi/7.3.1/thumb/v6-m/libgcc.a(_dvmd_tls.o)
 .debug_aranges
                0x00002ec8       0x20 /usr/lib/gcc/arm-none-eabi/7.3.1/../../../arm-none-eabi/lib/thumb/v6-m/libg.a(lib_a-memmove.o)
 .debug_aranges
                0x00002ee8       0x20 /usr/lib/gcc/arm-none-eabi/7.3.1/../../../arm-none-eabi/lib/thumb/v6-m/libg.a(lib_a-strchr.o)

.debug_ranges   0x00000000     0x2e48
 .debug_ranges  0x00000000       0x30 main.o
 .debug_ranges  0x00000030       0x48 devroot.o
 .debug_ranges  0x00000078      0x1c8 devcons.o
 .debug_ranges  0x00000240       0x78 devenv.o
 .debug_ranges  0x000002b8      0x120 devmnt.o
 .debug_ranges  0x000003d8       0x70 devpipe.o
 .debug_ranges  0x00000448      0x120 devprog.o
 .debug_ranges  0x00000568       0xd0 devsrv.o
 .debug_ranges  0x00000638       0x48 devdup.o
 .debug_ranges  0x00000680      0x178 archpico.o
 .debug_ranges  0x000007f8       0x10 alarm.o
 .debug_ranges  0x00000808      0x128 alloc.o
 .debug_ranges  0x00000930       0x38 allocb.o
 .debug_ranges  0x00000968      0x140 chan.o
 .debug_ranges  0x00000aa8       0x58 portclock.o
 .debug_ranges  0x00000b00       0xc0 dev.o
 .debug_ranges  0x00000bc0       0x48 dial.o
 .debug_ranges  0x00000c08      0x168 dis.o
 .debug_ranges  0x00000d70       0x38 exception.o
 .debug_ranges  0x00000da8      0x138 exportfs.o
 .debug_ranges  0x00000ee0      0x188 inferno.o
 .debug_ranges  0x00001068       0x18 latin1.o
 .debug_ranges  0x00001080       0x10 mul64fract.o
 .debug_ranges  0x00001090       0x30 nocache.o
 .debug_ranges  0x000010c0       0x38 nodynld.o
 .debug_ranges  0x000010f8       0x28 parse.o
 .debug_ranges  0x00001120       0x68 pgrp.o
 .debug_ranges  0x00001188       0x28 print.o
 .debug_ranges  0x000011b0      0x138 proc.o
 .debug_ranges  0x000012e8      0x198 qio.o
 .debug_ranges  0x00001480       0x48 qlock.o
 .debug_ranges  0x000014c8       0x38 random.o
 .debug_ranges  0x00001500      0x160 sysfile.o
 .debug_ranges  0x00001660       0x38 taslock.o
 .debug_ranges  0x00001698       0x60 tod.o
 .debug_ranges  0x000016f8       0x50 xalloc.o
 .debug_ranges  0x00001748       0x48 dump.o
 .debug_ranges  0x00001790       0x18 pico.o
 .debug_ranges  0x000017a8       0x30 /home/pi/github/inferno-pico/Pico/arm/lib/libinterp.a(math.o)
 .debug_ranges  0x000017d8       0x18 /home/pi/github/inferno-pico/Pico/arm/lib/libmath.a(e_pow.o)
 .debug_ranges  0x000017f0       0x30 /home/pi/github/inferno-pico/Pico/arm/lib/libkern.a(dofmt.o)
 .debug_ranges  0x00001820       0x60 /home/pi/github/inferno-pico/Pico/arm/lib/libkern.a(fmtquote.o)
 .debug_ranges  0x00001880       0x60 /home/pi/github/inferno-pico/Pico/arm/lib/libpico.a(clocks.o)
 .debug_ranges  0x000018e0       0x20 /home/pi/github/inferno-pico/Pico/arm/lib/libpico.a(crt0.o)
 .debug_ranges  0x00001900       0xe0 /home/pi/github/inferno-pico/Pico/arm/lib/libpico.a(gpio.o)
 .debug_ranges  0x000019e0      0x160 /home/pi/github/inferno-pico/Pico/arm/lib/libpico.a(irq.o)
 .debug_ranges  0x00001b40       0x30 /home/pi/github/inferno-pico/Pico/arm/lib/libpico.a(mem_ops_aeabi.o)
 .debug_ranges  0x00001b70       0x38 /home/pi/github/inferno-pico/Pico/arm/lib/libpico.a(pico_divider.o)
 .debug_ranges  0x00001ba8       0x50 /home/pi/github/inferno-pico/Pico/arm/lib/libpico.a(pico_malloc.o)
 .debug_ranges  0x00001bf8       0x18 /home/pi/github/inferno-pico/Pico/arm/lib/libpico.a(platform.o)
 .debug_ranges  0x00001c10       0x18 /home/pi/github/inferno-pico/Pico/arm/lib/libpico.a(pll.o)
 .debug_ranges  0x00001c28       0x80 /home/pi/github/inferno-pico/Pico/arm/lib/libpico.a(runtime.o)
 .debug_ranges  0x00001ca8      0x198 /home/pi/github/inferno-pico/Pico/arm/lib/libpico.a(stdio.o)
 .debug_ranges  0x00001e40       0xd8 /home/pi/github/inferno-pico/Pico/arm/lib/libpico.a(stdio_uart.o)
 .debug_ranges  0x00001f18       0x48 /home/pi/github/inferno-pico/Pico/arm/lib/libpico.a(sync.o)
 .debug_ranges  0x00001f60      0x648 /home/pi/github/inferno-pico/Pico/arm/lib/libpico.a(time.o)
 .debug_ranges  0x000025a8       0x98 /home/pi/github/inferno-pico/Pico/arm/lib/libpico.a(timer.o)
 .debug_ranges  0x00002640       0x60 /home/pi/github/inferno-pico/Pico/arm/lib/libpico.a(uart.o)
 .debug_ranges  0x000026a0       0x38 /home/pi/github/inferno-pico/Pico/arm/lib/libpico.a(unique_id.o)
 .debug_ranges  0x000026d8       0x48 /home/pi/github/inferno-pico/Pico/arm/lib/libpico.a(watchdog.o)
 .debug_ranges  0x00002720       0x20 /home/pi/github/inferno-pico/Pico/arm/lib/libpico.a(xosc.o)
 .debug_ranges  0x00002740       0x38 /home/pi/github/inferno-pico/Pico/arm/lib/libpico.a(bootrom.o)
 .debug_ranges  0x00002778       0x38 /home/pi/github/inferno-pico/Pico/arm/lib/libpico.a(claim.o)
 .debug_ranges  0x000027b0       0x58 /home/pi/github/inferno-pico/Pico/arm/lib/libpico.a(flash.o)
 .debug_ranges  0x00002808       0x10 /home/pi/github/inferno-pico/Pico/arm/lib/libpico.a(lock_core.o)
 .debug_ranges  0x00002818      0x2d8 /home/pi/github/inferno-pico/Pico/arm/lib/libpico.a(mutex.o)
 .debug_ranges  0x00002af0      0x248 /home/pi/github/inferno-pico/Pico/arm/lib/libpico.a(pheap.o)
 .debug_ranges  0x00002d38      0x110 /home/pi/github/inferno-pico/Pico/arm/lib/libpico.a(printf.o)

.debug_line     0x00000000    0x15f4b
 .debug_line    0x00000000      0x25d main.o
 .debug_line    0x0000025d       0x50 armv6.o
 .debug_line    0x000002ad      0x1fa devroot.o
 .debug_line    0x000004a7      0x7b6 devcons.o
 .debug_line    0x00000c5d      0x34e devenv.o
 .debug_line    0x00000fab      0x6d7 devmnt.o
 .debug_line    0x00001682      0x324 devpipe.o
 .debug_line    0x000019a6      0x8d7 devprog.o
 .debug_line    0x0000227d      0x57a devsrv.o
 .debug_line    0x000027f7      0x1d4 devdup.o
 .debug_line    0x000029cb      0x497 archpico.o
 .debug_line    0x00002e62      0x10d alarm.o
 .debug_line    0x00002f6f      0x788 alloc.o
 .debug_line    0x000036f7      0x1c2 allocb.o
 .debug_line    0x000038b9      0x946 chan.o
 .debug_line    0x000041ff      0x280 portclock.o
 .debug_line    0x0000447f      0x3b4 dev.o
 .debug_line    0x00004833      0x29f dial.o
 .debug_line    0x00004ad2      0x843 dis.o
 .debug_line    0x00005315      0x277 exception.o
 .debug_line    0x0000558c      0x86e exportfs.o
 .debug_line    0x00005dfa      0x8b2 inferno.o
 .debug_line    0x000066ac       0xd2 latin1.o
 .debug_line    0x0000677e       0x81 mul64fract.o
 .debug_line    0x000067ff      0x143 nocache.o
 .debug_line    0x00006942      0x15d nodynld.o
 .debug_line    0x00006a9f      0x1a1 parse.o
 .debug_line    0x00006c40      0x334 pgrp.o
 .debug_line    0x00006f74      0x129 print.o
 .debug_line    0x0000709d      0x613 proc.o
 .debug_line    0x000076b0      0x83b qio.o
 .debug_line    0x00007eeb      0x1af qlock.o
 .debug_line    0x0000809a      0x1ae random.o
 .debug_line    0x00008248      0x758 sysfile.o
 .debug_line    0x000089a0      0x1e7 taslock.o
 .debug_line    0x00008b87      0x225 tod.o
 .debug_line    0x00008dac      0x269 xalloc.o
 .debug_line    0x00009015      0x217 dump.o
 .debug_line    0x0000922c       0x2c pico.root.o
 .debug_line    0x00009258      0x111 pico.o
 .debug_line    0x00009369      0x1f3 /home/pi/github/inferno-pico/Pico/arm/lib/libinterp.a(alt.o)
 .debug_line    0x0000955c      0x80a /home/pi/github/inferno-pico/Pico/arm/lib/libinterp.a(comp-arm.o)
 .debug_line    0x00009d66      0x104 /home/pi/github/inferno-pico/Pico/arm/lib/libinterp.a(conv.o)
 .debug_line    0x00009e6a      0x4b5 /home/pi/github/inferno-pico/Pico/arm/lib/libinterp.a(dec.o)
 .debug_line    0x0000a31f      0x25f /home/pi/github/inferno-pico/Pico/arm/lib/libinterp.a(gc.o)
 .debug_line    0x0000a57e      0x3d7 /home/pi/github/inferno-pico/Pico/arm/lib/libinterp.a(heap.o)
 .debug_line    0x0000a955      0x15e /home/pi/github/inferno-pico/Pico/arm/lib/libinterp.a(link.o)
 .debug_line    0x0000aab3      0x435 /home/pi/github/inferno-pico/Pico/arm/lib/libinterp.a(load.o)
 .debug_line    0x0000aee8      0x446 /home/pi/github/inferno-pico/Pico/arm/lib/libinterp.a(math.o)
 .debug_line    0x0000b32e       0x28 /home/pi/github/inferno-pico/Pico/arm/lib/libinterp.a(raise.o)
 .debug_line    0x0000b356      0x14a /home/pi/github/inferno-pico/Pico/arm/lib/libinterp.a(readmod.o)
 .debug_line    0x0000b4a0      0x2f1 /home/pi/github/inferno-pico/Pico/arm/lib/libinterp.a(runt.o)
 .debug_line    0x0000b791       0xa9 /home/pi/github/inferno-pico/Pico/arm/lib/libinterp.a(sign.o)
 .debug_line    0x0000b83a      0x110 /home/pi/github/inferno-pico/Pico/arm/lib/libinterp.a(stack.o)
 .debug_line    0x0000b94a      0x936 /home/pi/github/inferno-pico/Pico/arm/lib/libinterp.a(xec.o)
 .debug_line    0x0000c280      0x1c3 /home/pi/github/inferno-pico/Pico/arm/lib/libinterp.a(das-arm.o)
 .debug_line    0x0000c443      0x334 /home/pi/github/inferno-pico/Pico/arm/lib/libinterp.a(string.o)
 .debug_line    0x0000c777       0xd1 /home/pi/github/inferno-pico/Pico/arm/lib/libinterp.a(dlm-Pico.o)
 .debug_line    0x0000c848       0xa7 /home/pi/github/inferno-pico/Pico/arm/lib/libmath.a(blas.o)
 .debug_line    0x0000c8ef      0x8ee /home/pi/github/inferno-pico/Pico/arm/lib/libmath.a(dtoa.o)
 .debug_line    0x0000d1dd       0x6f /home/pi/github/inferno-pico/Pico/arm/lib/libmath.a(fdim.o)
 .debug_line    0x0000d24c      0x16a /home/pi/github/inferno-pico/Pico/arm/lib/libmath.a(FPcontrol-Pico.o)
 .debug_line    0x0000d3b6      0x256 /home/pi/github/inferno-pico/Pico/arm/lib/libmath.a(gemm.o)
 .debug_line    0x0000d60c      0x1fe /home/pi/github/inferno-pico/Pico/arm/lib/libmath.a(gfltconv.o)
 .debug_line    0x0000d80a       0x66 /home/pi/github/inferno-pico/Pico/arm/lib/libmath.a(pow10.o)
 .debug_line    0x0000d870       0xb3 /home/pi/github/inferno-pico/Pico/arm/lib/libmath.a(e_acos.o)
 .debug_line    0x0000d923       0x8f /home/pi/github/inferno-pico/Pico/arm/lib/libmath.a(e_acosh.o)
 .debug_line    0x0000d9b2       0xb5 /home/pi/github/inferno-pico/Pico/arm/lib/libmath.a(e_asin.o)
 .debug_line    0x0000da67       0xe2 /home/pi/github/inferno-pico/Pico/arm/lib/libmath.a(e_atan2.o)
 .debug_line    0x0000db49       0xa0 /home/pi/github/inferno-pico/Pico/arm/lib/libmath.a(e_atanh.o)
 .debug_line    0x0000dbe9       0xa5 /home/pi/github/inferno-pico/Pico/arm/lib/libmath.a(e_cosh.o)
 .debug_line    0x0000dc8e       0xae /home/pi/github/inferno-pico/Pico/arm/lib/libmath.a(e_exp.o)
 .debug_line    0x0000dd3c      0x12a /home/pi/github/inferno-pico/Pico/arm/lib/libmath.a(e_fmod.o)
 .debug_line    0x0000de66       0xce /home/pi/github/inferno-pico/Pico/arm/lib/libmath.a(e_hypot.o)
 .debug_line    0x0000df34      0x13f /home/pi/github/inferno-pico/Pico/arm/lib/libmath.a(e_j0.o)
 .debug_line    0x0000e073      0x145 /home/pi/github/inferno-pico/Pico/arm/lib/libmath.a(e_j1.o)
 .debug_line    0x0000e1b8      0x1df /home/pi/github/inferno-pico/Pico/arm/lib/libmath.a(e_jn.o)
 .debug_line    0x0000e397      0x175 /home/pi/github/inferno-pico/Pico/arm/lib/libmath.a(e_lgamma_r.o)
 .debug_line    0x0000e50c       0xdf /home/pi/github/inferno-pico/Pico/arm/lib/libmath.a(e_log.o)
 .debug_line    0x0000e5eb       0x9b /home/pi/github/inferno-pico/Pico/arm/lib/libmath.a(e_log10.o)
 .debug_line    0x0000e686      0x1e6 /home/pi/github/inferno-pico/Pico/arm/lib/libmath.a(e_pow.o)
 .debug_line    0x0000e86c       0xc7 /home/pi/github/inferno-pico/Pico/arm/lib/libmath.a(e_remainder.o)
 .debug_line    0x0000e933       0xb4 /home/pi/github/inferno-pico/Pico/arm/lib/libmath.a(e_sinh.o)
 .debug_line    0x0000e9e7       0xfa /home/pi/github/inferno-pico/Pico/arm/lib/libmath.a(e_sqrt.o)
 .debug_line    0x0000eae1       0x86 /home/pi/github/inferno-pico/Pico/arm/lib/libmath.a(k_cos.o)
 .debug_line    0x0000eb67       0x80 /home/pi/github/inferno-pico/Pico/arm/lib/libmath.a(k_sin.o)
 .debug_line    0x0000ebe7      0x150 /home/pi/github/inferno-pico/Pico/arm/lib/libmath.a(s_erf.o)
 .debug_line    0x0000ed37       0x70 /home/pi/github/inferno-pico/Pico/arm/lib/libmath.a(s_fabs.o)
 .debug_line    0x0000eda7       0x72 /home/pi/github/inferno-pico/Pico/arm/lib/libmath.a(s_finite.o)
 .debug_line    0x0000ee19       0x9c /home/pi/github/inferno-pico/Pico/arm/lib/libmath.a(s_ilogb.o)
 .debug_line    0x0000eeb5       0xed /home/pi/github/inferno-pico/Pico/arm/lib/libmath.a(s_nextafter.o)
 .debug_line    0x0000efa2       0xb9 /home/pi/github/inferno-pico/Pico/arm/lib/libmath.a(s_rint.o)
 .debug_line    0x0000f05b       0xab /home/pi/github/inferno-pico/Pico/arm/lib/libmath.a(s_scalbn.o)
 .debug_line    0x0000f106       0xba /home/pi/github/inferno-pico/Pico/arm/lib/libmath.a(g_fmt.o)
 .debug_line    0x0000f1c0       0x6a /home/pi/github/inferno-pico/Pico/arm/lib/libkern.a(abort.o)
 .debug_line    0x0000f22a       0x69 /home/pi/github/inferno-pico/Pico/arm/lib/libkern.a(abs.o)
 .debug_line    0x0000f293       0xaf /home/pi/github/inferno-pico/Pico/arm/lib/libkern.a(atol.o)
 .debug_line    0x0000f342       0xcd /home/pi/github/inferno-pico/Pico/arm/lib/libkern.a(cleanname.o)
 .debug_line    0x0000f40f      0x105 /home/pi/github/inferno-pico/Pico/arm/lib/libkern.a(convD2M.o)
 .debug_line    0x0000f514       0xfc /home/pi/github/inferno-pico/Pico/arm/lib/libkern.a(convM2D.o)
 .debug_line    0x0000f610      0x1b3 /home/pi/github/inferno-pico/Pico/arm/lib/libkern.a(convM2S.o)
 .debug_line    0x0000f7c3      0x1ac /home/pi/github/inferno-pico/Pico/arm/lib/libkern.a(convS2M.o)
 .debug_line    0x0000f96f      0x4a9 /home/pi/github/inferno-pico/Pico/arm/lib/libkern.a(dofmt.o)
 .debug_line    0x0000fe18      0x1a7 /home/pi/github/inferno-pico/Pico/arm/lib/libkern.a(fcallfmt.o)
 .debug_line    0x0000ffbf      0x133 /home/pi/github/inferno-pico/Pico/arm/lib/libkern.a(fmt.o)
 .debug_line    0x000100f2      0x2b1 /home/pi/github/inferno-pico/Pico/arm/lib/libkern.a(fmtquote.o)
 .debug_line    0x000103a3       0xa1 /home/pi/github/inferno-pico/Pico/arm/lib/libkern.a(memchr.o)
 .debug_line    0x00010444       0xa8 /home/pi/github/inferno-pico/Pico/arm/lib/libkern.a(memcmp.o)
 .debug_line    0x000104ec      0x15c /home/pi/github/inferno-pico/Pico/arm/lib/libkern.a(rune.o)
 .debug_line    0x00010648       0x9f /home/pi/github/inferno-pico/Pico/arm/lib/libkern.a(seprint.o)
 .debug_line    0x000106e7       0x70 /home/pi/github/inferno-pico/Pico/arm/lib/libkern.a(strcmp.o)
 .debug_line    0x00010757       0x6a /home/pi/github/inferno-pico/Pico/arm/lib/libkern.a(strcpy.o)
 .debug_line    0x000107c1       0x69 /home/pi/github/inferno-pico/Pico/arm/lib/libkern.a(strdup.o)
 .debug_line    0x0001082a       0x71 /home/pi/github/inferno-pico/Pico/arm/lib/libkern.a(strecpy.o)
 .debug_line    0x0001089b       0x67 /home/pi/github/inferno-pico/Pico/arm/lib/libkern.a(strlen.o)
 .debug_line    0x00010902       0x78 /home/pi/github/inferno-pico/Pico/arm/lib/libkern.a(strncmp.o)
 .debug_line    0x0001097a       0x7c /home/pi/github/inferno-pico/Pico/arm/lib/libkern.a(strncpy.o)
 .debug_line    0x000109f6       0x6c /home/pi/github/inferno-pico/Pico/arm/lib/libkern.a(strrchr.o)
 .debug_line    0x00010a62       0x77 /home/pi/github/inferno-pico/Pico/arm/lib/libkern.a(strstr.o)
 .debug_line    0x00010ad9       0xd2 /home/pi/github/inferno-pico/Pico/arm/lib/libkern.a(strtol.o)
 .debug_line    0x00010bab       0xfb /home/pi/github/inferno-pico/Pico/arm/lib/libkern.a(strtoll.o)
 .debug_line    0x00010ca6      0x10d /home/pi/github/inferno-pico/Pico/arm/lib/libkern.a(strtoul.o)
 .debug_line    0x00010db3      0x105 /home/pi/github/inferno-pico/Pico/arm/lib/libkern.a(tokenize.o)
 .debug_line    0x00010eb8       0xa4 /home/pi/github/inferno-pico/Pico/arm/lib/libkern.a(utflen.o)
 .debug_line    0x00010f5c       0xb5 /home/pi/github/inferno-pico/Pico/arm/lib/libkern.a(utfnlen.o)
 .debug_line    0x00011011       0xae /home/pi/github/inferno-pico/Pico/arm/lib/libkern.a(utfrune.o)
 .debug_line    0x000110bf       0xae /home/pi/github/inferno-pico/Pico/arm/lib/libkern.a(vseprint.o)
 .debug_line    0x0001116d       0xa5 /home/pi/github/inferno-pico/Pico/arm/lib/libkern.a(frexp-arm.o)
 .debug_line    0x00011212       0x81 /home/pi/github/inferno-pico/Pico/arm/lib/libkern.a(nan-arm.o)
 .debug_line    0x00011293       0xa2 /home/pi/github/inferno-pico/Pico/arm/lib/libkern.a(memccpy.o)
 .debug_line    0x00011335      0x334 /home/pi/github/inferno-pico/Pico/arm/lib/libpico.a(clocks.o)
 .debug_line    0x00011669       0x95 /home/pi/github/inferno-pico/Pico/arm/lib/libpico.a(crt0.o)
 .debug_line    0x000116fe       0x41 /home/pi/github/inferno-pico/Pico/arm/lib/libpico.a(double_none.o)
 .debug_line    0x0001173f       0x40 /home/pi/github/inferno-pico/Pico/arm/lib/libpico.a(float_none.o)
 .debug_line    0x0001177f      0x41d /home/pi/github/inferno-pico/Pico/arm/lib/libpico.a(gpio.o)
 .debug_line    0x00011b9c      0x4a0 /home/pi/github/inferno-pico/Pico/arm/lib/libpico.a(irq.o)
 .debug_line    0x0001203c       0x4d /home/pi/github/inferno-pico/Pico/arm/lib/libpico.a(irq_handler_chain.o)
 .debug_line    0x00012089       0x8a /home/pi/github/inferno-pico/Pico/arm/lib/libpico.a(mem_ops_aeabi.o)
 .debug_line    0x00012113      0x29e /home/pi/github/inferno-pico/Pico/arm/lib/libpico.a(pico_divider.o)
 .debug_line    0x000123b1      0x13b /home/pi/github/inferno-pico/Pico/arm/lib/libpico.a(pico_malloc.o)
 .debug_line    0x000124ec      0x112 /home/pi/github/inferno-pico/Pico/arm/lib/libpico.a(platform.o)
 .debug_line    0x000125fe      0x1e8 /home/pi/github/inferno-pico/Pico/arm/lib/libpico.a(pll.o)
 .debug_line    0x000127e6      0x31d /home/pi/github/inferno-pico/Pico/arm/lib/libpico.a(runtime.o)
 .debug_line    0x00012b03      0x4e9 /home/pi/github/inferno-pico/Pico/arm/lib/libpico.a(stdio.o)
 .debug_line    0x00012fec      0x2ad /home/pi/github/inferno-pico/Pico/arm/lib/libpico.a(stdio_uart.o)
 .debug_line    0x00013299      0x1c2 /home/pi/github/inferno-pico/Pico/arm/lib/libpico.a(sync.o)
 .debug_line    0x0001345b      0x83b /home/pi/github/inferno-pico/Pico/arm/lib/libpico.a(time.o)
 .debug_line    0x00013c96      0x331 /home/pi/github/inferno-pico/Pico/arm/lib/libpico.a(timer.o)
 .debug_line    0x00013fc7      0x24b /home/pi/github/inferno-pico/Pico/arm/lib/libpico.a(uart.o)
 .debug_line    0x00014212      0x197 /home/pi/github/inferno-pico/Pico/arm/lib/libpico.a(unique_id.o)
 .debug_line    0x000143a9      0x1e7 /home/pi/github/inferno-pico/Pico/arm/lib/libpico.a(watchdog.o)
 .debug_line    0x00014590      0x140 /home/pi/github/inferno-pico/Pico/arm/lib/libpico.a(xosc.o)
 .debug_line    0x000146d0       0x5e /home/pi/github/inferno-pico/Pico/arm/lib/libpico.a(pico_int64_ops_aeabi.o)
 .debug_line    0x0001472e       0xff /home/pi/github/inferno-pico/Pico/arm/lib/libpico.a(bootrom.o)
 .debug_line    0x0001482d      0x196 /home/pi/github/inferno-pico/Pico/arm/lib/libpico.a(claim.o)
 .debug_line    0x000149c3      0x312 /home/pi/github/inferno-pico/Pico/arm/lib/libpico.a(flash.o)
 .debug_line    0x00014cd5       0xeb /home/pi/github/inferno-pico/Pico/arm/lib/libpico.a(lock_core.o)
 .debug_line    0x00014dc0      0x4a1 /home/pi/github/inferno-pico/Pico/arm/lib/libpico.a(mutex.o)
 .debug_line    0x00015261      0x395 /home/pi/github/inferno-pico/Pico/arm/lib/libpico.a(pheap.o)
 .debug_line    0x000155f6      0x5fe /home/pi/github/inferno-pico/Pico/arm/lib/libpico.a(printf.o)
 .debug_line    0x00015bf4       0x5d /usr/lib/gcc/arm-none-eabi/7.3.1/thumb/v6-m/libgcc.a(_dvmd_tls.o)
 .debug_line    0x00015c51      0x1b1 /usr/lib/gcc/arm-none-eabi/7.3.1/../../../arm-none-eabi/lib/thumb/v6-m/libg.a(lib_a-memmove.o)
 .debug_line    0x00015e02      0x149 /usr/lib/gcc/arm-none-eabi/7.3.1/../../../arm-none-eabi/lib/thumb/v6-m/libg.a(lib_a-strchr.o)

.debug_str      0x00000000     0x8c31
 .debug_str     0x00000000      0xa1f main.o
                                0xccd (size before relaxing)
 .debug_str     0x00000a1f       0x16 armv6.o
                                 0x3b (size before relaxing)
 .debug_str     0x00000a35      0x317 devroot.o
                                0xc56 (size before relaxing)
 .debug_str     0x00000d4c      0x62c devcons.o
                               0x1306 (size before relaxing)
 .debug_str     0x00001378       0xb6 devenv.o
                                0xd05 (size before relaxing)
 .debug_str     0x0000142e      0x3b1 devmnt.o
                               0x1098 (size before relaxing)
 .debug_str     0x000017df      0x34c devpipe.o
                               0x105a (size before relaxing)
 .debug_str     0x00001b2b      0x8dc devprog.o
                               0x191c (size before relaxing)
 .debug_str     0x00002407      0x233 devsrv.o
                               0x1733 (size before relaxing)
 .debug_str     0x0000263a       0x6f devdup.o
                                0xcbb (size before relaxing)
 .debug_str     0x000026a9      0x254 archpico.o
                                0xdd0 (size before relaxing)
 .debug_str     0x000028fd       0x24 alarm.o
                                0x94c (size before relaxing)
 .debug_str     0x00002921      0x205 alloc.o
                                0xf15 (size before relaxing)
 .debug_str     0x00002b26       0x70 allocb.o
                                0xc01 (size before relaxing)
 .debug_str     0x00002b96      0x1bc chan.o
                                0xf34 (size before relaxing)
 .debug_str     0x00002d52       0xd6 portclock.o
                                0xa83 (size before relaxing)
 .debug_str     0x00002e28       0x8b dev.o
                                0xd9c (size before relaxing)
 .debug_str     0x00002eb3       0xd1 dial.o
                                0xc57 (size before relaxing)
 .debug_str     0x00002f84      0x2fe dis.o
                               0x1726 (size before relaxing)
 .debug_str     0x00003282       0x64 exception.o
                               0x14f1 (size before relaxing)
 .debug_str     0x000032e6      0x25e exportfs.o
                               0x10c2 (size before relaxing)
 .debug_str     0x00003544      0x3ba inferno.o
                               0x1a8e (size before relaxing)
 .debug_str     0x000038fe       0x29 latin1.o
                                0x19c (size before relaxing)
 .debug_str     0x00003927       0x20 mul64fract.o
                                0x189 (size before relaxing)
 .debug_str     0x00003947       0x12 nocache.o
                                0xbb3 (size before relaxing)
 .debug_str     0x00003959       0x70 nodynld.o
                                0xbb7 (size before relaxing)
 .debug_str     0x000039c9       0x30 parse.o
                                0xbdd (size before relaxing)
 .debug_str     0x000039f9       0x34 pgrp.o
                                0xc39 (size before relaxing)
 .debug_str     0x00003a2d       0x42 print.o
                                0x992 (size before relaxing)
 .debug_str     0x00003a6f       0xfe proc.o
                               0x1037 (size before relaxing)
 .debug_str     0x00003b6d      0x19d qio.o
                                0xeb7 (size before relaxing)
 .debug_str     0x00003d0a       0x19 qlock.o
                                0x981 (size before relaxing)
 .debug_str     0x00003d23       0x64 random.o
                                0xa0c (size before relaxing)
 .debug_str     0x00003d87       0xd7 sysfile.o
                                0xe43 (size before relaxing)
 .debug_str     0x00003e5e       0x25 taslock.o
                                0xbc4 (size before relaxing)
 .debug_str     0x00003e83       0x84 tod.o
                                0xc1b (size before relaxing)
 .debug_str     0x00003f07       0x76 xalloc.o
                                0xa03 (size before relaxing)
 .debug_str     0x00003f7d       0x6c dump.o
                                0x9c3 (size before relaxing)
 .debug_str     0x00003fe9      0x108 pico.root.o
                                0x1ff (size before relaxing)
 .debug_str     0x000040f1       0x54 pico.o
                                0xf2a (size before relaxing)
 .debug_str     0x00004145      0x102 /home/pi/github/inferno-pico/Pico/arm/lib/libinterp.a(alt.o)
                                0x57e (size before relaxing)
 .debug_str     0x00004247      0x270 /home/pi/github/inferno-pico/Pico/arm/lib/libinterp.a(comp-arm.o)
                                0xd92 (size before relaxing)
 .debug_str     0x000044b7       0x55 /home/pi/github/inferno-pico/Pico/arm/lib/libinterp.a(conv.o)
                                0x96f (size before relaxing)
 .debug_str     0x0000450c        0x6 /home/pi/github/inferno-pico/Pico/arm/lib/libinterp.a(dec.o)
                                0x7bc (size before relaxing)
 .debug_str     0x00004512       0xc9 /home/pi/github/inferno-pico/Pico/arm/lib/libinterp.a(gc.o)
                                0x5e2 (size before relaxing)
 .debug_str     0x000045db       0x8d /home/pi/github/inferno-pico/Pico/arm/lib/libinterp.a(heap.o)
                                0xc1d (size before relaxing)
 .debug_str     0x00004668       0x40 /home/pi/github/inferno-pico/Pico/arm/lib/libinterp.a(link.o)
                                0x58a (size before relaxing)
 .debug_str     0x000046a8       0xb3 /home/pi/github/inferno-pico/Pico/arm/lib/libinterp.a(load.o)
                                0xb1a (size before relaxing)
 .debug_str     0x0000475b      0x57f /home/pi/github/inferno-pico/Pico/arm/lib/libinterp.a(math.o)
                               0x12ea (size before relaxing)
 .debug_str     0x00004cda        0x8 /home/pi/github/inferno-pico/Pico/arm/lib/libinterp.a(raise.o)
                                0x178 (size before relaxing)
 .debug_str     0x00004ce2       0x1b /home/pi/github/inferno-pico/Pico/arm/lib/libinterp.a(readmod.o)
                                0x3f4 (size before relaxing)
 .debug_str     0x00004cfd       0xaa /home/pi/github/inferno-pico/Pico/arm/lib/libinterp.a(runt.o)
                                0xcba (size before relaxing)
 .debug_str     0x00004da7        0x7 /home/pi/github/inferno-pico/Pico/arm/lib/libinterp.a(sign.o)
                                0x378 (size before relaxing)
 .debug_str     0x00004dae       0x10 /home/pi/github/inferno-pico/Pico/arm/lib/libinterp.a(stack.o)
                                0x56f (size before relaxing)
 .debug_str     0x00004dbe      0x354 /home/pi/github/inferno-pico/Pico/arm/lib/libinterp.a(xec.o)
                                0xfb0 (size before relaxing)
 .debug_str     0x00005112       0x8c /home/pi/github/inferno-pico/Pico/arm/lib/libinterp.a(das-arm.o)
                                0x212 (size before relaxing)
 .debug_str     0x0000519e       0xab /home/pi/github/inferno-pico/Pico/arm/lib/libinterp.a(string.o)
                                0x596 (size before relaxing)
 .debug_str     0x00005249        0xb /home/pi/github/inferno-pico/Pico/arm/lib/libinterp.a(dlm-Pico.o)
                                0x479 (size before relaxing)
 .debug_str     0x00005254       0x2c /home/pi/github/inferno-pico/Pico/arm/lib/libmath.a(blas.o)
                                0x15e (size before relaxing)
 .debug_str     0x00005280      0x167 /home/pi/github/inferno-pico/Pico/arm/lib/libmath.a(dtoa.o)
                                0x31b (size before relaxing)
 .debug_str     0x000053e7        0x7 /home/pi/github/inferno-pico/Pico/arm/lib/libmath.a(fdim.o)
                                0x151 (size before relaxing)
 .debug_str     0x000053ee       0x80 /home/pi/github/inferno-pico/Pico/arm/lib/libmath.a(FPcontrol-Pico.o)
                                0x1f2 (size before relaxing)
 .debug_str     0x0000546e        0xc /home/pi/github/inferno-pico/Pico/arm/lib/libmath.a(gemm.o)
                                0x16f (size before relaxing)
 .debug_str     0x0000547a       0xe6 /home/pi/github/inferno-pico/Pico/arm/lib/libmath.a(gfltconv.o)
                                0x2a1 (size before relaxing)
 .debug_str     0x00005560        0x8 /home/pi/github/inferno-pico/Pico/arm/lib/libmath.a(pow10.o)
                                0x14a (size before relaxing)
 .debug_str     0x00005568       0x20 /home/pi/github/inferno-pico/Pico/arm/lib/libmath.a(e_acos.o)
                                0x16f (size before relaxing)
 .debug_str     0x00005588       0x11 /home/pi/github/inferno-pico/Pico/arm/lib/libmath.a(e_acosh.o)
                                0x175 (size before relaxing)
 .debug_str     0x00005599       0x18 /home/pi/github/inferno-pico/Pico/arm/lib/libmath.a(e_asin.o)
                                0x181 (size before relaxing)
 .debug_str     0x000055b1       0x2a /home/pi/github/inferno-pico/Pico/arm/lib/libmath.a(e_atan2.o)
                                0x184 (size before relaxing)
 .debug_str     0x000055db       0x11 /home/pi/github/inferno-pico/Pico/arm/lib/libmath.a(e_atanh.o)
                                0x16c (size before relaxing)
 .debug_str     0x000055ec       0x10 /home/pi/github/inferno-pico/Pico/arm/lib/libmath.a(e_cosh.o)
                                0x17d (size before relaxing)
 .debug_str     0x000055fc       0x48 /home/pi/github/inferno-pico/Pico/arm/lib/libmath.a(e_exp.o)
                                0x196 (size before relaxing)
 .debug_str     0x00005644       0x10 /home/pi/github/inferno-pico/Pico/arm/lib/libmath.a(e_fmod.o)
                                0x15f (size before relaxing)
 .debug_str     0x00005654       0x11 /home/pi/github/inferno-pico/Pico/arm/lib/libmath.a(e_hypot.o)
                                0x161 (size before relaxing)
 .debug_str     0x00005665       0x1e /home/pi/github/inferno-pico/Pico/arm/lib/libmath.a(e_j0.o)
                                0x19b (size before relaxing)
 .debug_str     0x00005683       0x13 /home/pi/github/inferno-pico/Pico/arm/lib/libmath.a(e_j1.o)
                                0x199 (size before relaxing)
 .debug_str     0x00005696        0xe /home/pi/github/inferno-pico/Pico/arm/lib/libmath.a(e_jn.o)
                                0x1c8 (size before relaxing)
 .debug_str     0x000056a4       0x49 /home/pi/github/inferno-pico/Pico/arm/lib/libmath.a(e_lgamma_r.o)
                                0x1ba (size before relaxing)
 .debug_str     0x000056ed       0x28 /home/pi/github/inferno-pico/Pico/arm/lib/libmath.a(e_log.o)
                                0x176 (size before relaxing)
 .debug_str     0x00005715       0x2c /home/pi/github/inferno-pico/Pico/arm/lib/libmath.a(e_log10.o)
                                0x190 (size before relaxing)
 .debug_str     0x00005741       0x52 /home/pi/github/inferno-pico/Pico/arm/lib/libmath.a(e_pow.o)
                                0x1bb (size before relaxing)
 .debug_str     0x00005793       0x1c /home/pi/github/inferno-pico/Pico/arm/lib/libmath.a(e_remainder.o)
                                0x184 (size before relaxing)
 .debug_str     0x000057af       0x16 /home/pi/github/inferno-pico/Pico/arm/lib/libmath.a(e_sinh.o)
                                0x179 (size before relaxing)
 .debug_str     0x000057c5       0x10 /home/pi/github/inferno-pico/Pico/arm/lib/libmath.a(e_sqrt.o)
                                0x164 (size before relaxing)
 .debug_str     0x000057d5        0xf /home/pi/github/inferno-pico/Pico/arm/lib/libmath.a(k_cos.o)
                                0x157 (size before relaxing)
 .debug_str     0x000057e4        0xf /home/pi/github/inferno-pico/Pico/arm/lib/libmath.a(k_sin.o)
                                0x15c (size before relaxing)
 .debug_str     0x000057f3       0x14 /home/pi/github/inferno-pico/Pico/arm/lib/libmath.a(s_erf.o)
                                0x171 (size before relaxing)
 .debug_str     0x00005807       0x10 /home/pi/github/inferno-pico/Pico/arm/lib/libmath.a(s_fabs.o)
                                0x150 (size before relaxing)
 .debug_str     0x00005817       0x12 /home/pi/github/inferno-pico/Pico/arm/lib/libmath.a(s_finite.o)
                                0x154 (size before relaxing)
 .debug_str     0x00005829       0x11 /home/pi/github/inferno-pico/Pico/arm/lib/libmath.a(s_ilogb.o)
                                0x152 (size before relaxing)
 .debug_str     0x0000583a       0x15 /home/pi/github/inferno-pico/Pico/arm/lib/libmath.a(s_nextafter.o)
                                0x15a (size before relaxing)
 .debug_str     0x0000584f       0x16 /home/pi/github/inferno-pico/Pico/arm/lib/libmath.a(s_rint.o)
                                0x15c (size before relaxing)
 .debug_str     0x00005865       0x19 /home/pi/github/inferno-pico/Pico/arm/lib/libmath.a(s_scalbn.o)
                                0x174 (size before relaxing)
 .debug_str     0x0000587e        0xe /home/pi/github/inferno-pico/Pico/arm/lib/libmath.a(g_fmt.o)
                                 0xe5 (size before relaxing)
 .debug_str     0x0000588c       0x2d /home/pi/github/inferno-pico/Pico/arm/lib/libkern.a(abort.o)
                                0x149 (size before relaxing)
 .debug_str     0x000058b9        0x5 /home/pi/github/inferno-pico/Pico/arm/lib/libkern.a(abs.o)
                                0x146 (size before relaxing)
 .debug_str     0x000058be        0xc /home/pi/github/inferno-pico/Pico/arm/lib/libkern.a(atol.o)
                                0x14c (size before relaxing)
 .debug_str     0x000058ca       0x20 /home/pi/github/inferno-pico/Pico/arm/lib/libkern.a(cleanname.o)
                                0x180 (size before relaxing)
 .debug_str     0x000058ea        0xa /home/pi/github/inferno-pico/Pico/arm/lib/libkern.a(convD2M.o)
                                0x1c4 (size before relaxing)
 .debug_str     0x000058f4       0x1a /home/pi/github/inferno-pico/Pico/arm/lib/libkern.a(convM2D.o)
                                0x1d6 (size before relaxing)
 .debug_str     0x0000590e       0x17 /home/pi/github/inferno-pico/Pico/arm/lib/libkern.a(convM2S.o)
                                0x2f4 (size before relaxing)
 .debug_str     0x00005925       0x28 /home/pi/github/inferno-pico/Pico/arm/lib/libkern.a(convS2M.o)
                                0x30c (size before relaxing)
 .debug_str     0x0000594d       0xbc /home/pi/github/inferno-pico/Pico/arm/lib/libkern.a(dofmt.o)
                                0x35d (size before relaxing)
 .debug_str     0x00005a09       0x3f /home/pi/github/inferno-pico/Pico/arm/lib/libkern.a(fcallfmt.o)
                                0x38e (size before relaxing)
 .debug_str     0x00005a48       0x3d /home/pi/github/inferno-pico/Pico/arm/lib/libkern.a(fmt.o)
                                0x289 (size before relaxing)
 .debug_str     0x00005a85       0xa2 /home/pi/github/inferno-pico/Pico/arm/lib/libkern.a(fmtquote.o)
                                0x385 (size before relaxing)
 .debug_str     0x00005b27        0x9 /home/pi/github/inferno-pico/Pico/arm/lib/libkern.a(memchr.o)
                                0x157 (size before relaxing)
 .debug_str     0x00005b30        0x9 /home/pi/github/inferno-pico/Pico/arm/lib/libkern.a(memcmp.o)
                                0x15c (size before relaxing)
 .debug_str     0x00005b39       0x37 /home/pi/github/inferno-pico/Pico/arm/lib/libkern.a(rune.o)
                                0x1f2 (size before relaxing)
 .debug_str     0x00005b70       0x37 /home/pi/github/inferno-pico/Pico/arm/lib/libkern.a(seprint.o)
                                0x163 (size before relaxing)
 .debug_str     0x00005b70        0x9 /home/pi/github/inferno-pico/Pico/arm/lib/libkern.a(strcmp.o)
                                0x14b (size before relaxing)
 .debug_str     0x00005b79       0x11 /home/pi/github/inferno-pico/Pico/arm/lib/libkern.a(strcpy.o)
                                0x153 (size before relaxing)
 .debug_str     0x00005b8a        0x9 /home/pi/github/inferno-pico/Pico/arm/lib/libkern.a(strdup.o)
                                0x160 (size before relaxing)
 .debug_str     0x00005b93        0xa /home/pi/github/inferno-pico/Pico/arm/lib/libkern.a(strecpy.o)
                                0x15a (size before relaxing)
 .debug_str     0x00005b9d        0x9 /home/pi/github/inferno-pico/Pico/arm/lib/libkern.a(strlen.o)
                                0x152 (size before relaxing)
 .debug_str     0x00005ba6        0xa /home/pi/github/inferno-pico/Pico/arm/lib/libkern.a(strncmp.o)
                                0x14d (size before relaxing)
 .debug_str     0x00005bb0        0xa /home/pi/github/inferno-pico/Pico/arm/lib/libkern.a(strncpy.o)
                                0x14d (size before relaxing)
 .debug_str     0x00005bba        0xa /home/pi/github/inferno-pico/Pico/arm/lib/libkern.a(strrchr.o)
                                0x154 (size before relaxing)
 .debug_str     0x00005bc4        0x9 /home/pi/github/inferno-pico/Pico/arm/lib/libkern.a(strstr.o)
                                0x161 (size before relaxing)
 .debug_str     0x00005bcd       0x15 /home/pi/github/inferno-pico/Pico/arm/lib/libkern.a(strtol.o)
                                0x16d (size before relaxing)
 .debug_str     0x00005be2        0xa /home/pi/github/inferno-pico/Pico/arm/lib/libkern.a(strtoll.o)
                                0x170 (size before relaxing)
 .debug_str     0x00005bec        0xa /home/pi/github/inferno-pico/Pico/arm/lib/libkern.a(strtoul.o)
                                0x175 (size before relaxing)
 .debug_str     0x00005bf6       0x38 /home/pi/github/inferno-pico/Pico/arm/lib/libkern.a(tokenize.o)
                                0x18f (size before relaxing)
 .debug_str     0x00005c2e        0x9 /home/pi/github/inferno-pico/Pico/arm/lib/libkern.a(utflen.o)
                                0x19f (size before relaxing)
 .debug_str     0x00005c37        0xa /home/pi/github/inferno-pico/Pico/arm/lib/libkern.a(utfnlen.o)
                                0x1aa (size before relaxing)
 .debug_str     0x00005c41        0xa /home/pi/github/inferno-pico/Pico/arm/lib/libkern.a(utfrune.o)
                                0x1a3 (size before relaxing)
 .debug_str     0x00005c4b        0xb /home/pi/github/inferno-pico/Pico/arm/lib/libkern.a(vseprint.o)
                                0x1a0 (size before relaxing)
 .debug_str     0x00005c56       0x1e /home/pi/github/inferno-pico/Pico/arm/lib/libkern.a(frexp-arm.o)
                                0x15e (size before relaxing)
 .debug_str     0x00005c74       0x10 /home/pi/github/inferno-pico/Pico/arm/lib/libkern.a(nan-arm.o)
                                0x156 (size before relaxing)
 .debug_str     0x00005c84        0xa /home/pi/github/inferno-pico/Pico/arm/lib/libkern.a(memccpy.o)
                                0x159 (size before relaxing)
 .debug_str     0x00005c8e      0x463 /home/pi/github/inferno-pico/Pico/arm/lib/libpico.a(clocks.o)
                                0x62a (size before relaxing)
 .debug_str     0x000060f1        0x7 /home/pi/github/inferno-pico/Pico/arm/lib/libpico.a(crt0.o)
                                 0x37 (size before relaxing)
 .debug_str     0x000060f8        0xe /home/pi/github/inferno-pico/Pico/arm/lib/libpico.a(double_none.o)
                                 0x3e (size before relaxing)
 .debug_str     0x00006106        0xd /home/pi/github/inferno-pico/Pico/arm/lib/libpico.a(float_none.o)
                                 0x3d (size before relaxing)
 .debug_str     0x00006113      0x4fd /home/pi/github/inferno-pico/Pico/arm/lib/libpico.a(gpio.o)
                                0x857 (size before relaxing)
 .debug_str     0x00006610      0x3c8 /home/pi/github/inferno-pico/Pico/arm/lib/libpico.a(irq.o)
                                0x6fb (size before relaxing)
 .debug_str     0x000069d8       0x14 /home/pi/github/inferno-pico/Pico/arm/lib/libpico.a(irq_handler_chain.o)
                                 0x44 (size before relaxing)
 .debug_str     0x000069ec       0x10 /home/pi/github/inferno-pico/Pico/arm/lib/libpico.a(mem_ops_aeabi.o)
                                 0x40 (size before relaxing)
 .debug_str     0x000069fc        0xf /home/pi/github/inferno-pico/Pico/arm/lib/libpico.a(pico_divider.o)
                                 0x3f (size before relaxing)
 .debug_str     0x00006a0b      0x406 /home/pi/github/inferno-pico/Pico/arm/lib/libpico.a(pico_malloc.o)
                                0x5cf (size before relaxing)
 .debug_str     0x00006e11       0x34 /home/pi/github/inferno-pico/Pico/arm/lib/libpico.a(platform.o)
                                0x1f4 (size before relaxing)
 .debug_str     0x00006e45       0x8e /home/pi/github/inferno-pico/Pico/arm/lib/libpico.a(pll.o)
                                0x2a2 (size before relaxing)
 .debug_str     0x00006ed3      0x1eb /home/pi/github/inferno-pico/Pico/arm/lib/libpico.a(runtime.o)
                                0x62f (size before relaxing)
 .debug_str     0x000070be      0x332 /home/pi/github/inferno-pico/Pico/arm/lib/libpico.a(stdio.o)
                                0xb26 (size before relaxing)
 .debug_str     0x000073f0      0x31c /home/pi/github/inferno-pico/Pico/arm/lib/libpico.a(stdio_uart.o)
                                0x6c7 (size before relaxing)
 .debug_str     0x0000770c       0xf7 /home/pi/github/inferno-pico/Pico/arm/lib/libpico.a(sync.o)
                                0x31f (size before relaxing)
 .debug_str     0x00007803      0x530 /home/pi/github/inferno-pico/Pico/arm/lib/libpico.a(time.o)
                                0xf4e (size before relaxing)
 .debug_str     0x00007d33      0x112 /home/pi/github/inferno-pico/Pico/arm/lib/libpico.a(timer.o)
                                0x65f (size before relaxing)
 .debug_str     0x00007e45      0x106 /home/pi/github/inferno-pico/Pico/arm/lib/libpico.a(uart.o)
                                0x4fe (size before relaxing)
 .debug_str     0x00007f4b       0x77 /home/pi/github/inferno-pico/Pico/arm/lib/libpico.a(unique_id.o)
                                0x246 (size before relaxing)
 .debug_str     0x00007fc2       0xd7 /home/pi/github/inferno-pico/Pico/arm/lib/libpico.a(watchdog.o)
                                0x2ed (size before relaxing)
 .debug_str     0x00008099       0x2b /home/pi/github/inferno-pico/Pico/arm/lib/libpico.a(xosc.o)
                                0x1f3 (size before relaxing)
 .debug_str     0x000080c4       0x17 /home/pi/github/inferno-pico/Pico/arm/lib/libpico.a(pico_int64_ops_aeabi.o)
                                 0x47 (size before relaxing)
 .debug_str     0x000080db       0x8d /home/pi/github/inferno-pico/Pico/arm/lib/libpico.a(bootrom.o)
                                0x22f (size before relaxing)
 .debug_str     0x00008168       0x52 /home/pi/github/inferno-pico/Pico/arm/lib/libpico.a(claim.o)
                                0x337 (size before relaxing)
 .debug_str     0x000081ba      0x2cf /home/pi/github/inferno-pico/Pico/arm/lib/libpico.a(flash.o)
                                0x5b5 (size before relaxing)
 .debug_str     0x00008489        0xc /home/pi/github/inferno-pico/Pico/arm/lib/libpico.a(lock_core.o)
                                0x234 (size before relaxing)
 .debug_str     0x00008495       0xf5 /home/pi/github/inferno-pico/Pico/arm/lib/libpico.a(mutex.o)
                                0x5b0 (size before relaxing)
 .debug_str     0x0000858a       0xb6 /home/pi/github/inferno-pico/Pico/arm/lib/libpico.a(pheap.o)
                                0x7af (size before relaxing)
 .debug_str     0x00008640      0x188 /home/pi/github/inferno-pico/Pico/arm/lib/libpico.a(printf.o)
                                0x796 (size before relaxing)
 .debug_str     0x000087c8       0x8f /usr/lib/gcc/arm-none-eabi/7.3.1/thumb/v6-m/libgcc.a(_dvmd_tls.o)
                                 0x9d (size before relaxing)
 .debug_str     0x00008857      0x39c /usr/lib/gcc/arm-none-eabi/7.3.1/../../../arm-none-eabi/lib/thumb/v6-m/libg.a(lib_a-memmove.o)
                                0x8d0 (size before relaxing)
 .debug_str     0x00008bf3       0x3e /usr/lib/gcc/arm-none-eabi/7.3.1/../../../arm-none-eabi/lib/thumb/v6-m/libg.a(lib_a-strchr.o)
                                0x593 (size before relaxing)

.debug_frame    0x00000000     0xb8cc
 .debug_frame   0x00000000       0xac main.o
 .debug_frame   0x000000ac       0xe8 devroot.o
 .debug_frame   0x00000194      0x550 devcons.o
 .debug_frame   0x000006e4      0x1bc devenv.o
 .debug_frame   0x000008a0      0x428 devmnt.o
 .debug_frame   0x00000cc8      0x18c devpipe.o
 .debug_frame   0x00000e54      0x444 devprog.o
 .debug_frame   0x00001298      0x2cc devsrv.o
 .debug_frame   0x00001564       0xe8 devdup.o
 .debug_frame   0x0000164c      0x264 archpico.o
 .debug_frame   0x000018b0       0x2c alarm.o
 .debug_frame   0x000018dc      0x3e4 alloc.o
 .debug_frame   0x00001cc0       0xb0 allocb.o
 .debug_frame   0x00001d70      0x448 chan.o
 .debug_frame   0x000021b8      0x138 portclock.o
 .debug_frame   0x000022f0      0x280 dev.o
 .debug_frame   0x00002570      0x118 dial.o
 .debug_frame   0x00002688      0x410 dis.o
 .debug_frame   0x00002a98       0xc4 exception.o
 .debug_frame   0x00002b5c      0x48c exportfs.o
 .debug_frame   0x00002fe8      0x584 inferno.o
 .debug_frame   0x0000356c       0x44 latin1.o
 .debug_frame   0x000035b0       0x38 mul64fract.o
 .debug_frame   0x000035e8       0x60 nocache.o
 .debug_frame   0x00003648       0x70 nodynld.o
 .debug_frame   0x000036b8       0x8c parse.o
 .debug_frame   0x00003744      0x184 pgrp.o
 .debug_frame   0x000038c8       0x60 print.o
 .debug_frame   0x00003928      0x3ec proc.o
 .debug_frame   0x00003d14      0x53c qio.o
 .debug_frame   0x00004250       0xdc qlock.o
 .debug_frame   0x0000432c       0xa0 random.o
 .debug_frame   0x000043cc      0x544 sysfile.o
 .debug_frame   0x00004910       0xbc taslock.o
 .debug_frame   0x000049cc      0x160 tod.o
 .debug_frame   0x00004b2c      0x110 xalloc.o
 .debug_frame   0x00004c3c       0xe0 dump.o
 .debug_frame   0x00004d1c       0x40 pico.o
 .debug_frame   0x00004d5c      0x104 /home/pi/github/inferno-pico/Pico/arm/lib/libinterp.a(alt.o)
 .debug_frame   0x00004e60      0x58c /home/pi/github/inferno-pico/Pico/arm/lib/libinterp.a(comp-arm.o)
 .debug_frame   0x000053ec       0x4c /home/pi/github/inferno-pico/Pico/arm/lib/libinterp.a(conv.o)
 .debug_frame   0x00005438     0x1150 /home/pi/github/inferno-pico/Pico/arm/lib/libinterp.a(dec.o)
 .debug_frame   0x00006588      0x118 /home/pi/github/inferno-pico/Pico/arm/lib/libinterp.a(gc.o)
 .debug_frame   0x000066a0      0x2b4 /home/pi/github/inferno-pico/Pico/arm/lib/libinterp.a(heap.o)
 .debug_frame   0x00006954       0xe4 /home/pi/github/inferno-pico/Pico/arm/lib/libinterp.a(link.o)
 .debug_frame   0x00006a38      0x10c /home/pi/github/inferno-pico/Pico/arm/lib/libinterp.a(load.o)
 .debug_frame   0x00006b44      0x73c /home/pi/github/inferno-pico/Pico/arm/lib/libinterp.a(math.o)
 .debug_frame   0x00007280       0x3c /home/pi/github/inferno-pico/Pico/arm/lib/libinterp.a(readmod.o)
 .debug_frame   0x000072bc      0x1f0 /home/pi/github/inferno-pico/Pico/arm/lib/libinterp.a(runt.o)
 .debug_frame   0x000074ac       0x30 /home/pi/github/inferno-pico/Pico/arm/lib/libinterp.a(sign.o)
 .debug_frame   0x000074dc       0x84 /home/pi/github/inferno-pico/Pico/arm/lib/libinterp.a(stack.o)
 .debug_frame   0x00007560     0x1048 /home/pi/github/inferno-pico/Pico/arm/lib/libinterp.a(xec.o)
 .debug_frame   0x000085a8      0x18c /home/pi/github/inferno-pico/Pico/arm/lib/libinterp.a(das-arm.o)
 .debug_frame   0x00008734      0x288 /home/pi/github/inferno-pico/Pico/arm/lib/libinterp.a(string.o)
 .debug_frame   0x000089bc       0x50 /home/pi/github/inferno-pico/Pico/arm/lib/libinterp.a(dlm-Pico.o)
 .debug_frame   0x00008a0c       0x90 /home/pi/github/inferno-pico/Pico/arm/lib/libmath.a(blas.o)
 .debug_frame   0x00008a9c      0x2e8 /home/pi/github/inferno-pico/Pico/arm/lib/libmath.a(dtoa.o)
 .debug_frame   0x00008d84       0x70 /home/pi/github/inferno-pico/Pico/arm/lib/libmath.a(fdim.o)
 .debug_frame   0x00008df4       0x90 /home/pi/github/inferno-pico/Pico/arm/lib/libmath.a(FPcontrol-Pico.o)
 .debug_frame   0x00008e84       0x3c /home/pi/github/inferno-pico/Pico/arm/lib/libmath.a(gemm.o)
 .debug_frame   0x00008ec0       0x3c /home/pi/github/inferno-pico/Pico/arm/lib/libmath.a(gfltconv.o)
 .debug_frame   0x00008efc       0x28 /home/pi/github/inferno-pico/Pico/arm/lib/libmath.a(pow10.o)
 .debug_frame   0x00008f24       0x30 /home/pi/github/inferno-pico/Pico/arm/lib/libmath.a(e_acos.o)
 .debug_frame   0x00008f54       0x30 /home/pi/github/inferno-pico/Pico/arm/lib/libmath.a(e_acosh.o)
 .debug_frame   0x00008f84       0x30 /home/pi/github/inferno-pico/Pico/arm/lib/libmath.a(e_asin.o)
 .debug_frame   0x00008fb4       0x38 /home/pi/github/inferno-pico/Pico/arm/lib/libmath.a(e_atan2.o)
 .debug_frame   0x00008fec       0x30 /home/pi/github/inferno-pico/Pico/arm/lib/libmath.a(e_atanh.o)
 .debug_frame   0x0000901c       0x30 /home/pi/github/inferno-pico/Pico/arm/lib/libmath.a(e_cosh.o)
 .debug_frame   0x0000904c       0x38 /home/pi/github/inferno-pico/Pico/arm/lib/libmath.a(e_exp.o)
 .debug_frame   0x00009084       0x3c /home/pi/github/inferno-pico/Pico/arm/lib/libmath.a(e_fmod.o)
 .debug_frame   0x000090c0       0x38 /home/pi/github/inferno-pico/Pico/arm/lib/libmath.a(e_hypot.o)
 .debug_frame   0x000090f8       0x90 /home/pi/github/inferno-pico/Pico/arm/lib/libmath.a(e_j0.o)
 .debug_frame   0x00009188       0x98 /home/pi/github/inferno-pico/Pico/arm/lib/libmath.a(e_j1.o)
 .debug_frame   0x00009220       0x60 /home/pi/github/inferno-pico/Pico/arm/lib/libmath.a(e_jn.o)
 .debug_frame   0x00009280       0x50 /home/pi/github/inferno-pico/Pico/arm/lib/libmath.a(e_lgamma_r.o)
 .debug_frame   0x000092d0       0x30 /home/pi/github/inferno-pico/Pico/arm/lib/libmath.a(e_log.o)
 .debug_frame   0x00009300       0x30 /home/pi/github/inferno-pico/Pico/arm/lib/libmath.a(e_log10.o)
 .debug_frame   0x00009330       0x3c /home/pi/github/inferno-pico/Pico/arm/lib/libmath.a(e_pow.o)
 .debug_frame   0x0000936c       0x38 /home/pi/github/inferno-pico/Pico/arm/lib/libmath.a(e_remainder.o)
 .debug_frame   0x000093a4       0x30 /home/pi/github/inferno-pico/Pico/arm/lib/libmath.a(e_sinh.o)
 .debug_frame   0x000093d4       0x38 /home/pi/github/inferno-pico/Pico/arm/lib/libmath.a(e_sqrt.o)
 .debug_frame   0x0000940c       0x30 /home/pi/github/inferno-pico/Pico/arm/lib/libmath.a(k_cos.o)
 .debug_frame   0x0000943c       0x30 /home/pi/github/inferno-pico/Pico/arm/lib/libmath.a(k_sin.o)
 .debug_frame   0x0000946c       0x50 /home/pi/github/inferno-pico/Pico/arm/lib/libmath.a(s_erf.o)
 .debug_frame   0x000094bc       0x24 /home/pi/github/inferno-pico/Pico/arm/lib/libmath.a(s_fabs.o)
 .debug_frame   0x000094e0       0x20 /home/pi/github/inferno-pico/Pico/arm/lib/libmath.a(s_finite.o)
 .debug_frame   0x00009500       0x20 /home/pi/github/inferno-pico/Pico/arm/lib/libmath.a(s_ilogb.o)
 .debug_frame   0x00009520       0x3c /home/pi/github/inferno-pico/Pico/arm/lib/libmath.a(s_nextafter.o)
 .debug_frame   0x0000955c       0x40 /home/pi/github/inferno-pico/Pico/arm/lib/libmath.a(s_rint.o)
 .debug_frame   0x0000959c       0x2c /home/pi/github/inferno-pico/Pico/arm/lib/libmath.a(s_scalbn.o)
 .debug_frame   0x000095c8       0x30 /home/pi/github/inferno-pico/Pico/arm/lib/libmath.a(g_fmt.o)
 .debug_frame   0x000095f8       0x20 /home/pi/github/inferno-pico/Pico/arm/lib/libkern.a(abort.o)
 .debug_frame   0x00009618       0x30 /home/pi/github/inferno-pico/Pico/arm/lib/libkern.a(abs.o)
 .debug_frame   0x00009648       0x44 /home/pi/github/inferno-pico/Pico/arm/lib/libkern.a(atol.o)
 .debug_frame   0x0000968c       0x30 /home/pi/github/inferno-pico/Pico/arm/lib/libkern.a(cleanname.o)
 .debug_frame   0x000096bc       0x58 /home/pi/github/inferno-pico/Pico/arm/lib/libkern.a(convD2M.o)
 .debug_frame   0x00009714       0x54 /home/pi/github/inferno-pico/Pico/arm/lib/libkern.a(convM2D.o)
 .debug_frame   0x00009768       0x6c /home/pi/github/inferno-pico/Pico/arm/lib/libkern.a(convM2S.o)
 .debug_frame   0x000097d4       0x90 /home/pi/github/inferno-pico/Pico/arm/lib/libkern.a(convS2M.o)
 .debug_frame   0x00009864      0x1f4 /home/pi/github/inferno-pico/Pico/arm/lib/libkern.a(dofmt.o)
 .debug_frame   0x00009a58       0xb0 /home/pi/github/inferno-pico/Pico/arm/lib/libkern.a(fcallfmt.o)
 .debug_frame   0x00009b08       0x64 /home/pi/github/inferno-pico/Pico/arm/lib/libkern.a(fmt.o)
 .debug_frame   0x00009b6c      0x108 /home/pi/github/inferno-pico/Pico/arm/lib/libkern.a(fmtquote.o)
 .debug_frame   0x00009c74       0x28 /home/pi/github/inferno-pico/Pico/arm/lib/libkern.a(memchr.o)
 .debug_frame   0x00009c9c       0x2c /home/pi/github/inferno-pico/Pico/arm/lib/libkern.a(memcmp.o)
 .debug_frame   0x00009cc8       0x9c /home/pi/github/inferno-pico/Pico/arm/lib/libkern.a(rune.o)
 .debug_frame   0x00009d64       0x2c /home/pi/github/inferno-pico/Pico/arm/lib/libkern.a(seprint.o)
 .debug_frame   0x00009d90       0x2c /home/pi/github/inferno-pico/Pico/arm/lib/libkern.a(strcmp.o)
 .debug_frame   0x00009dbc       0x2c /home/pi/github/inferno-pico/Pico/arm/lib/libkern.a(strcpy.o)
 .debug_frame   0x00009de8       0x28 /home/pi/github/inferno-pico/Pico/arm/lib/libkern.a(strdup.o)
 .debug_frame   0x00009e10       0x28 /home/pi/github/inferno-pico/Pico/arm/lib/libkern.a(strecpy.o)
 .debug_frame   0x00009e38       0x28 /home/pi/github/inferno-pico/Pico/arm/lib/libkern.a(strlen.o)
 .debug_frame   0x00009e60       0x28 /home/pi/github/inferno-pico/Pico/arm/lib/libkern.a(strncmp.o)
 .debug_frame   0x00009e88       0x2c /home/pi/github/inferno-pico/Pico/arm/lib/libkern.a(strncpy.o)
 .debug_frame   0x00009eb4       0x2c /home/pi/github/inferno-pico/Pico/arm/lib/libkern.a(strrchr.o)
 .debug_frame   0x00009ee0       0x30 /home/pi/github/inferno-pico/Pico/arm/lib/libkern.a(strstr.o)
 .debug_frame   0x00009f10       0x38 /home/pi/github/inferno-pico/Pico/arm/lib/libkern.a(strtol.o)
 .debug_frame   0x00009f48       0x3c /home/pi/github/inferno-pico/Pico/arm/lib/libkern.a(strtoll.o)
 .debug_frame   0x00009f84       0x3c /home/pi/github/inferno-pico/Pico/arm/lib/libkern.a(strtoul.o)
 .debug_frame   0x00009fc0       0x90 /home/pi/github/inferno-pico/Pico/arm/lib/libkern.a(tokenize.o)
 .debug_frame   0x0000a050       0x2c /home/pi/github/inferno-pico/Pico/arm/lib/libkern.a(utflen.o)
 .debug_frame   0x0000a07c       0x30 /home/pi/github/inferno-pico/Pico/arm/lib/libkern.a(utfnlen.o)
 .debug_frame   0x0000a0ac       0x2c /home/pi/github/inferno-pico/Pico/arm/lib/libkern.a(utfrune.o)
 .debug_frame   0x0000a0d8       0x2c /home/pi/github/inferno-pico/Pico/arm/lib/libkern.a(vseprint.o)
 .debug_frame   0x0000a104       0x68 /home/pi/github/inferno-pico/Pico/arm/lib/libkern.a(frexp-arm.o)
 .debug_frame   0x0000a16c       0x5c /home/pi/github/inferno-pico/Pico/arm/lib/libkern.a(nan-arm.o)
 .debug_frame   0x0000a1c8       0x2c /home/pi/github/inferno-pico/Pico/arm/lib/libkern.a(memccpy.o)
 .debug_frame   0x0000a1f4      0x120 /home/pi/github/inferno-pico/Pico/arm/lib/libpico.a(clocks.o)
 .debug_frame   0x0000a314      0x1e8 /home/pi/github/inferno-pico/Pico/arm/lib/libpico.a(gpio.o)
 .debug_frame   0x0000a4fc      0x188 /home/pi/github/inferno-pico/Pico/arm/lib/libpico.a(irq.o)
 .debug_frame   0x0000a684       0x58 /home/pi/github/inferno-pico/Pico/arm/lib/libpico.a(pico_malloc.o)
 .debug_frame   0x0000a6dc       0x38 /home/pi/github/inferno-pico/Pico/arm/lib/libpico.a(platform.o)
 .debug_frame   0x0000a714       0x40 /home/pi/github/inferno-pico/Pico/arm/lib/libpico.a(pll.o)
 .debug_frame   0x0000a754       0xdc /home/pi/github/inferno-pico/Pico/arm/lib/libpico.a(runtime.o)
 .debug_frame   0x0000a830      0x274 /home/pi/github/inferno-pico/Pico/arm/lib/libpico.a(stdio.o)
 .debug_frame   0x0000aaa4       0xb4 /home/pi/github/inferno-pico/Pico/arm/lib/libpico.a(stdio_uart.o)
 .debug_frame   0x0000ab58       0xc4 /home/pi/github/inferno-pico/Pico/arm/lib/libpico.a(sync.o)
 .debug_frame   0x0000ac1c      0x290 /home/pi/github/inferno-pico/Pico/arm/lib/libpico.a(time.o)
 .debug_frame   0x0000aeac      0x13c /home/pi/github/inferno-pico/Pico/arm/lib/libpico.a(timer.o)
 .debug_frame   0x0000afe8       0x78 /home/pi/github/inferno-pico/Pico/arm/lib/libpico.a(uart.o)
 .debug_frame   0x0000b060       0x58 /home/pi/github/inferno-pico/Pico/arm/lib/libpico.a(unique_id.o)
 .debug_frame   0x0000b0b8       0xa8 /home/pi/github/inferno-pico/Pico/arm/lib/libpico.a(watchdog.o)
 .debug_frame   0x0000b160       0x40 /home/pi/github/inferno-pico/Pico/arm/lib/libpico.a(xosc.o)
 .debug_frame   0x0000b1a0       0x64 /home/pi/github/inferno-pico/Pico/arm/lib/libpico.a(bootrom.o)
 .debug_frame   0x0000b204       0x98 /home/pi/github/inferno-pico/Pico/arm/lib/libpico.a(claim.o)
 .debug_frame   0x0000b29c       0xdc /home/pi/github/inferno-pico/Pico/arm/lib/libpico.a(flash.o)
 .debug_frame   0x0000b378       0x20 /home/pi/github/inferno-pico/Pico/arm/lib/libpico.a(lock_core.o)
 .debug_frame   0x0000b398      0x194 /home/pi/github/inferno-pico/Pico/arm/lib/libpico.a(mutex.o)
 .debug_frame   0x0000b52c      0x154 /home/pi/github/inferno-pico/Pico/arm/lib/libpico.a(pheap.o)
 .debug_frame   0x0000b680      0x1ec /home/pi/github/inferno-pico/Pico/arm/lib/libpico.a(printf.o)
 .debug_frame   0x0000b86c       0x30 /usr/lib/gcc/arm-none-eabi/7.3.1/../../../arm-none-eabi/lib/thumb/v6-m/libg.a(lib_a-memmove.o)
 .debug_frame   0x0000b89c       0x30 /usr/lib/gcc/arm-none-eabi/7.3.1/../../../arm-none-eabi/lib/thumb/v6-m/libg.a(lib_a-strchr.o)
